
analogue_watch.elf:     file format elf32-littlearm

Sections:
Idx Name          Size      VMA       LMA       File off  Algn
  0 .isr_vector   0000010c  08000000  08000000  00010000  2**0
                  CONTENTS, ALLOC, LOAD, READONLY, DATA
  1 .text         00005d2c  08000110  08000110  00010110  2**4
                  CONTENTS, ALLOC, LOAD, READONLY, CODE
  2 .rodata       0000020c  08005e3c  08005e3c  00015e3c  2**2
                  CONTENTS, ALLOC, LOAD, READONLY, DATA
  3 .ARM.extab    00000000  08006048  08006048  00020074  2**0
                  CONTENTS
  4 .ARM          00000000  08006048  08006048  00020074  2**0
                  CONTENTS
  5 .preinit_array 00000000  08006048  08006048  00020074  2**0
                  CONTENTS, ALLOC, LOAD, DATA
  6 .init_array   00000004  08006048  08006048  00016048  2**2
                  CONTENTS, ALLOC, LOAD, DATA
  7 .fini_array   00000004  0800604c  0800604c  0001604c  2**2
                  CONTENTS, ALLOC, LOAD, DATA
  8 .data         00000074  20000000  08006050  00020000  2**2
                  CONTENTS, ALLOC, LOAD, DATA
  9 .bss          00003070  20000074  080060c4  00020074  2**2
                  ALLOC
 10 ._user_heap_stack 00000604  200030e4  080060c4  000230e4  2**0
                  ALLOC
 11 .ARM.attributes 00000029  00000000  00000000  00020074  2**0
                  CONTENTS, READONLY
 12 .comment      00000050  00000000  00000000  0002009d  2**0
                  CONTENTS, READONLY
 13 .debug_frame  000005f0  00000000  00000000  000200f0  2**2
                  CONTENTS, READONLY, DEBUGGING, OCTETS

Disassembly of section .text:

08000110 <__do_global_dtors_aux>:
 8000110:	b510      	push	{r4, lr}
 8000112:	4c05      	ldr	r4, [pc, #20]	; (8000128 <__do_global_dtors_aux+0x18>)
 8000114:	7823      	ldrb	r3, [r4, #0]
 8000116:	b933      	cbnz	r3, 8000126 <__do_global_dtors_aux+0x16>
 8000118:	4b04      	ldr	r3, [pc, #16]	; (800012c <__do_global_dtors_aux+0x1c>)
 800011a:	b113      	cbz	r3, 8000122 <__do_global_dtors_aux+0x12>
 800011c:	4804      	ldr	r0, [pc, #16]	; (8000130 <__do_global_dtors_aux+0x20>)
 800011e:	f3af 8000 	nop.w
 8000122:	2301      	movs	r3, #1
 8000124:	7023      	strb	r3, [r4, #0]
 8000126:	bd10      	pop	{r4, pc}
 8000128:	20000074 	.word	0x20000074
 800012c:	00000000 	.word	0x00000000
 8000130:	08005e24 	.word	0x08005e24

08000134 <frame_dummy>:
 8000134:	b508      	push	{r3, lr}
 8000136:	4b03      	ldr	r3, [pc, #12]	; (8000144 <frame_dummy+0x10>)
 8000138:	b11b      	cbz	r3, 8000142 <frame_dummy+0xe>
 800013a:	4903      	ldr	r1, [pc, #12]	; (8000148 <frame_dummy+0x14>)
 800013c:	4803      	ldr	r0, [pc, #12]	; (800014c <frame_dummy+0x18>)
 800013e:	f3af 8000 	nop.w
 8000142:	bd08      	pop	{r3, pc}
 8000144:	00000000 	.word	0x00000000
 8000148:	20000078 	.word	0x20000078
 800014c:	08005e24 	.word	0x08005e24

08000150 <__aeabi_dmul>:
 8000150:	b570      	push	{r4, r5, r6, lr}
 8000152:	f04f 0cff 	mov.w	ip, #255	; 0xff
 8000156:	f44c 6ce0 	orr.w	ip, ip, #1792	; 0x700
 800015a:	ea1c 5411 	ands.w	r4, ip, r1, lsr #20
 800015e:	bf1d      	ittte	ne
 8000160:	ea1c 5513 	andsne.w	r5, ip, r3, lsr #20
 8000164:	ea94 0f0c 	teqne	r4, ip
 8000168:	ea95 0f0c 	teqne	r5, ip
 800016c:	f000 f8de 	bleq	800032c <__aeabi_dmul+0x1dc>
 8000170:	442c      	add	r4, r5
 8000172:	ea81 0603 	eor.w	r6, r1, r3
 8000176:	ea21 514c 	bic.w	r1, r1, ip, lsl #21
 800017a:	ea23 534c 	bic.w	r3, r3, ip, lsl #21
 800017e:	ea50 3501 	orrs.w	r5, r0, r1, lsl #12
 8000182:	bf18      	it	ne
 8000184:	ea52 3503 	orrsne.w	r5, r2, r3, lsl #12
 8000188:	f441 1180 	orr.w	r1, r1, #1048576	; 0x100000
 800018c:	f443 1380 	orr.w	r3, r3, #1048576	; 0x100000
 8000190:	d038      	beq.n	8000204 <__aeabi_dmul+0xb4>
 8000192:	fba0 ce02 	umull	ip, lr, r0, r2
 8000196:	f04f 0500 	mov.w	r5, #0
 800019a:	fbe1 e502 	umlal	lr, r5, r1, r2
 800019e:	f006 4200 	and.w	r2, r6, #2147483648	; 0x80000000
 80001a2:	fbe0 e503 	umlal	lr, r5, r0, r3
 80001a6:	f04f 0600 	mov.w	r6, #0
 80001aa:	fbe1 5603 	umlal	r5, r6, r1, r3
 80001ae:	f09c 0f00 	teq	ip, #0
 80001b2:	bf18      	it	ne
 80001b4:	f04e 0e01 	orrne.w	lr, lr, #1
 80001b8:	f1a4 04ff 	sub.w	r4, r4, #255	; 0xff
 80001bc:	f5b6 7f00 	cmp.w	r6, #512	; 0x200
 80001c0:	f564 7440 	sbc.w	r4, r4, #768	; 0x300
 80001c4:	d204      	bcs.n	80001d0 <__aeabi_dmul+0x80>
 80001c6:	ea5f 0e4e 	movs.w	lr, lr, lsl #1
 80001ca:	416d      	adcs	r5, r5
 80001cc:	eb46 0606 	adc.w	r6, r6, r6
 80001d0:	ea42 21c6 	orr.w	r1, r2, r6, lsl #11
 80001d4:	ea41 5155 	orr.w	r1, r1, r5, lsr #21
 80001d8:	ea4f 20c5 	mov.w	r0, r5, lsl #11
 80001dc:	ea40 505e 	orr.w	r0, r0, lr, lsr #21
 80001e0:	ea4f 2ece 	mov.w	lr, lr, lsl #11
 80001e4:	f1b4 0cfd 	subs.w	ip, r4, #253	; 0xfd
 80001e8:	bf88      	it	hi
 80001ea:	f5bc 6fe0 	cmphi.w	ip, #1792	; 0x700
 80001ee:	d81e      	bhi.n	800022e <__aeabi_dmul+0xde>
 80001f0:	f1be 4f00 	cmp.w	lr, #2147483648	; 0x80000000
 80001f4:	bf08      	it	eq
 80001f6:	ea5f 0e50 	movseq.w	lr, r0, lsr #1
 80001fa:	f150 0000 	adcs.w	r0, r0, #0
 80001fe:	eb41 5104 	adc.w	r1, r1, r4, lsl #20
 8000202:	bd70      	pop	{r4, r5, r6, pc}
 8000204:	f006 4600 	and.w	r6, r6, #2147483648	; 0x80000000
 8000208:	ea46 0101 	orr.w	r1, r6, r1
 800020c:	ea40 0002 	orr.w	r0, r0, r2
 8000210:	ea81 0103 	eor.w	r1, r1, r3
 8000214:	ebb4 045c 	subs.w	r4, r4, ip, lsr #1
 8000218:	bfc2      	ittt	gt
 800021a:	ebd4 050c 	rsbsgt	r5, r4, ip
 800021e:	ea41 5104 	orrgt.w	r1, r1, r4, lsl #20
 8000222:	bd70      	popgt	{r4, r5, r6, pc}
 8000224:	f441 1180 	orr.w	r1, r1, #1048576	; 0x100000
 8000228:	f04f 0e00 	mov.w	lr, #0
 800022c:	3c01      	subs	r4, #1
 800022e:	f300 80ab 	bgt.w	8000388 <__aeabi_dmul+0x238>
 8000232:	f114 0f36 	cmn.w	r4, #54	; 0x36
 8000236:	bfde      	ittt	le
 8000238:	2000      	movle	r0, #0
 800023a:	f001 4100 	andle.w	r1, r1, #2147483648	; 0x80000000
 800023e:	bd70      	pople	{r4, r5, r6, pc}
 8000240:	f1c4 0400 	rsb	r4, r4, #0
 8000244:	3c20      	subs	r4, #32
 8000246:	da35      	bge.n	80002b4 <__aeabi_dmul+0x164>
 8000248:	340c      	adds	r4, #12
 800024a:	dc1b      	bgt.n	8000284 <__aeabi_dmul+0x134>
 800024c:	f104 0414 	add.w	r4, r4, #20
 8000250:	f1c4 0520 	rsb	r5, r4, #32
 8000254:	fa00 f305 	lsl.w	r3, r0, r5
 8000258:	fa20 f004 	lsr.w	r0, r0, r4
 800025c:	fa01 f205 	lsl.w	r2, r1, r5
 8000260:	ea40 0002 	orr.w	r0, r0, r2
 8000264:	f001 4200 	and.w	r2, r1, #2147483648	; 0x80000000
 8000268:	f021 4100 	bic.w	r1, r1, #2147483648	; 0x80000000
 800026c:	eb10 70d3 	adds.w	r0, r0, r3, lsr #31
 8000270:	fa21 f604 	lsr.w	r6, r1, r4
 8000274:	eb42 0106 	adc.w	r1, r2, r6
 8000278:	ea5e 0e43 	orrs.w	lr, lr, r3, lsl #1
 800027c:	bf08      	it	eq
 800027e:	ea20 70d3 	biceq.w	r0, r0, r3, lsr #31
 8000282:	bd70      	pop	{r4, r5, r6, pc}
 8000284:	f1c4 040c 	rsb	r4, r4, #12
 8000288:	f1c4 0520 	rsb	r5, r4, #32
 800028c:	fa00 f304 	lsl.w	r3, r0, r4
 8000290:	fa20 f005 	lsr.w	r0, r0, r5
 8000294:	fa01 f204 	lsl.w	r2, r1, r4
 8000298:	ea40 0002 	orr.w	r0, r0, r2
 800029c:	f001 4100 	and.w	r1, r1, #2147483648	; 0x80000000
 80002a0:	eb10 70d3 	adds.w	r0, r0, r3, lsr #31
 80002a4:	f141 0100 	adc.w	r1, r1, #0
 80002a8:	ea5e 0e43 	orrs.w	lr, lr, r3, lsl #1
 80002ac:	bf08      	it	eq
 80002ae:	ea20 70d3 	biceq.w	r0, r0, r3, lsr #31
 80002b2:	bd70      	pop	{r4, r5, r6, pc}
 80002b4:	f1c4 0520 	rsb	r5, r4, #32
 80002b8:	fa00 f205 	lsl.w	r2, r0, r5
 80002bc:	ea4e 0e02 	orr.w	lr, lr, r2
 80002c0:	fa20 f304 	lsr.w	r3, r0, r4
 80002c4:	fa01 f205 	lsl.w	r2, r1, r5
 80002c8:	ea43 0302 	orr.w	r3, r3, r2
 80002cc:	fa21 f004 	lsr.w	r0, r1, r4
 80002d0:	f001 4100 	and.w	r1, r1, #2147483648	; 0x80000000
 80002d4:	fa21 f204 	lsr.w	r2, r1, r4
 80002d8:	ea20 0002 	bic.w	r0, r0, r2
 80002dc:	eb00 70d3 	add.w	r0, r0, r3, lsr #31
 80002e0:	ea5e 0e43 	orrs.w	lr, lr, r3, lsl #1
 80002e4:	bf08      	it	eq
 80002e6:	ea20 70d3 	biceq.w	r0, r0, r3, lsr #31
 80002ea:	bd70      	pop	{r4, r5, r6, pc}
 80002ec:	f094 0f00 	teq	r4, #0
 80002f0:	d10f      	bne.n	8000312 <__aeabi_dmul+0x1c2>
 80002f2:	f001 4600 	and.w	r6, r1, #2147483648	; 0x80000000
 80002f6:	0040      	lsls	r0, r0, #1
 80002f8:	eb41 0101 	adc.w	r1, r1, r1
 80002fc:	f411 1f80 	tst.w	r1, #1048576	; 0x100000
 8000300:	bf08      	it	eq
 8000302:	3c01      	subeq	r4, #1
 8000304:	d0f7      	beq.n	80002f6 <__aeabi_dmul+0x1a6>
 8000306:	ea41 0106 	orr.w	r1, r1, r6
 800030a:	f095 0f00 	teq	r5, #0
 800030e:	bf18      	it	ne
 8000310:	4770      	bxne	lr
 8000312:	f003 4600 	and.w	r6, r3, #2147483648	; 0x80000000
 8000316:	0052      	lsls	r2, r2, #1
 8000318:	eb43 0303 	adc.w	r3, r3, r3
 800031c:	f413 1f80 	tst.w	r3, #1048576	; 0x100000
 8000320:	bf08      	it	eq
 8000322:	3d01      	subeq	r5, #1
 8000324:	d0f7      	beq.n	8000316 <__aeabi_dmul+0x1c6>
 8000326:	ea43 0306 	orr.w	r3, r3, r6
 800032a:	4770      	bx	lr
 800032c:	ea94 0f0c 	teq	r4, ip
 8000330:	ea0c 5513 	and.w	r5, ip, r3, lsr #20
 8000334:	bf18      	it	ne
 8000336:	ea95 0f0c 	teqne	r5, ip
 800033a:	d00c      	beq.n	8000356 <__aeabi_dmul+0x206>
 800033c:	ea50 0641 	orrs.w	r6, r0, r1, lsl #1
 8000340:	bf18      	it	ne
 8000342:	ea52 0643 	orrsne.w	r6, r2, r3, lsl #1
 8000346:	d1d1      	bne.n	80002ec <__aeabi_dmul+0x19c>
 8000348:	ea81 0103 	eor.w	r1, r1, r3
 800034c:	f001 4100 	and.w	r1, r1, #2147483648	; 0x80000000
 8000350:	f04f 0000 	mov.w	r0, #0
 8000354:	bd70      	pop	{r4, r5, r6, pc}
 8000356:	ea50 0641 	orrs.w	r6, r0, r1, lsl #1
 800035a:	bf06      	itte	eq
 800035c:	4610      	moveq	r0, r2
 800035e:	4619      	moveq	r1, r3
 8000360:	ea52 0643 	orrsne.w	r6, r2, r3, lsl #1
 8000364:	d019      	beq.n	800039a <__aeabi_dmul+0x24a>
 8000366:	ea94 0f0c 	teq	r4, ip
 800036a:	d102      	bne.n	8000372 <__aeabi_dmul+0x222>
 800036c:	ea50 3601 	orrs.w	r6, r0, r1, lsl #12
 8000370:	d113      	bne.n	800039a <__aeabi_dmul+0x24a>
 8000372:	ea95 0f0c 	teq	r5, ip
 8000376:	d105      	bne.n	8000384 <__aeabi_dmul+0x234>
 8000378:	ea52 3603 	orrs.w	r6, r2, r3, lsl #12
 800037c:	bf1c      	itt	ne
 800037e:	4610      	movne	r0, r2
 8000380:	4619      	movne	r1, r3
 8000382:	d10a      	bne.n	800039a <__aeabi_dmul+0x24a>
 8000384:	ea81 0103 	eor.w	r1, r1, r3
 8000388:	f001 4100 	and.w	r1, r1, #2147483648	; 0x80000000
 800038c:	f041 41fe 	orr.w	r1, r1, #2130706432	; 0x7f000000
 8000390:	f441 0170 	orr.w	r1, r1, #15728640	; 0xf00000
 8000394:	f04f 0000 	mov.w	r0, #0
 8000398:	bd70      	pop	{r4, r5, r6, pc}
 800039a:	f041 41fe 	orr.w	r1, r1, #2130706432	; 0x7f000000
 800039e:	f441 0178 	orr.w	r1, r1, #16252928	; 0xf80000
 80003a2:	bd70      	pop	{r4, r5, r6, pc}

080003a4 <__aeabi_drsub>:
 80003a4:	f081 4100 	eor.w	r1, r1, #2147483648	; 0x80000000
 80003a8:	e002      	b.n	80003b0 <__adddf3>
 80003aa:	bf00      	nop

080003ac <__aeabi_dsub>:
 80003ac:	f083 4300 	eor.w	r3, r3, #2147483648	; 0x80000000

080003b0 <__adddf3>:
 80003b0:	b530      	push	{r4, r5, lr}
 80003b2:	ea4f 0441 	mov.w	r4, r1, lsl #1
 80003b6:	ea4f 0543 	mov.w	r5, r3, lsl #1
 80003ba:	ea94 0f05 	teq	r4, r5
 80003be:	bf08      	it	eq
 80003c0:	ea90 0f02 	teqeq	r0, r2
 80003c4:	bf1f      	itttt	ne
 80003c6:	ea54 0c00 	orrsne.w	ip, r4, r0
 80003ca:	ea55 0c02 	orrsne.w	ip, r5, r2
 80003ce:	ea7f 5c64 	mvnsne.w	ip, r4, asr #21
 80003d2:	ea7f 5c65 	mvnsne.w	ip, r5, asr #21
 80003d6:	f000 80e2 	beq.w	800059e <__adddf3+0x1ee>
 80003da:	ea4f 5454 	mov.w	r4, r4, lsr #21
 80003de:	ebd4 5555 	rsbs	r5, r4, r5, lsr #21
 80003e2:	bfb8      	it	lt
 80003e4:	426d      	neglt	r5, r5
 80003e6:	dd0c      	ble.n	8000402 <__adddf3+0x52>
 80003e8:	442c      	add	r4, r5
 80003ea:	ea80 0202 	eor.w	r2, r0, r2
 80003ee:	ea81 0303 	eor.w	r3, r1, r3
 80003f2:	ea82 0000 	eor.w	r0, r2, r0
 80003f6:	ea83 0101 	eor.w	r1, r3, r1
 80003fa:	ea80 0202 	eor.w	r2, r0, r2
 80003fe:	ea81 0303 	eor.w	r3, r1, r3
 8000402:	2d36      	cmp	r5, #54	; 0x36
 8000404:	bf88      	it	hi
 8000406:	bd30      	pophi	{r4, r5, pc}
 8000408:	f011 4f00 	tst.w	r1, #2147483648	; 0x80000000
 800040c:	ea4f 3101 	mov.w	r1, r1, lsl #12
 8000410:	f44f 1c80 	mov.w	ip, #1048576	; 0x100000
 8000414:	ea4c 3111 	orr.w	r1, ip, r1, lsr #12
 8000418:	d002      	beq.n	8000420 <__adddf3+0x70>
 800041a:	4240      	negs	r0, r0
 800041c:	eb61 0141 	sbc.w	r1, r1, r1, lsl #1
 8000420:	f013 4f00 	tst.w	r3, #2147483648	; 0x80000000
 8000424:	ea4f 3303 	mov.w	r3, r3, lsl #12
 8000428:	ea4c 3313 	orr.w	r3, ip, r3, lsr #12
 800042c:	d002      	beq.n	8000434 <__adddf3+0x84>
 800042e:	4252      	negs	r2, r2
 8000430:	eb63 0343 	sbc.w	r3, r3, r3, lsl #1
 8000434:	ea94 0f05 	teq	r4, r5
 8000438:	f000 80a7 	beq.w	800058a <__adddf3+0x1da>
 800043c:	f1a4 0401 	sub.w	r4, r4, #1
 8000440:	f1d5 0e20 	rsbs	lr, r5, #32
 8000444:	db0d      	blt.n	8000462 <__adddf3+0xb2>
 8000446:	fa02 fc0e 	lsl.w	ip, r2, lr
 800044a:	fa22 f205 	lsr.w	r2, r2, r5
 800044e:	1880      	adds	r0, r0, r2
 8000450:	f141 0100 	adc.w	r1, r1, #0
 8000454:	fa03 f20e 	lsl.w	r2, r3, lr
 8000458:	1880      	adds	r0, r0, r2
 800045a:	fa43 f305 	asr.w	r3, r3, r5
 800045e:	4159      	adcs	r1, r3
 8000460:	e00e      	b.n	8000480 <__adddf3+0xd0>
 8000462:	f1a5 0520 	sub.w	r5, r5, #32
 8000466:	f10e 0e20 	add.w	lr, lr, #32
 800046a:	2a01      	cmp	r2, #1
 800046c:	fa03 fc0e 	lsl.w	ip, r3, lr
 8000470:	bf28      	it	cs
 8000472:	f04c 0c02 	orrcs.w	ip, ip, #2
 8000476:	fa43 f305 	asr.w	r3, r3, r5
 800047a:	18c0      	adds	r0, r0, r3
 800047c:	eb51 71e3 	adcs.w	r1, r1, r3, asr #31
 8000480:	f001 4500 	and.w	r5, r1, #2147483648	; 0x80000000
 8000484:	d507      	bpl.n	8000496 <__adddf3+0xe6>
 8000486:	f04f 0e00 	mov.w	lr, #0
 800048a:	f1dc 0c00 	rsbs	ip, ip, #0
 800048e:	eb7e 0000 	sbcs.w	r0, lr, r0
 8000492:	eb6e 0101 	sbc.w	r1, lr, r1
 8000496:	f5b1 1f80 	cmp.w	r1, #1048576	; 0x100000
 800049a:	d31b      	bcc.n	80004d4 <__adddf3+0x124>
 800049c:	f5b1 1f00 	cmp.w	r1, #2097152	; 0x200000
 80004a0:	d30c      	bcc.n	80004bc <__adddf3+0x10c>
 80004a2:	0849      	lsrs	r1, r1, #1
 80004a4:	ea5f 0030 	movs.w	r0, r0, rrx
 80004a8:	ea4f 0c3c 	mov.w	ip, ip, rrx
 80004ac:	f104 0401 	add.w	r4, r4, #1
 80004b0:	ea4f 5244 	mov.w	r2, r4, lsl #21
 80004b4:	f512 0f80 	cmn.w	r2, #4194304	; 0x400000
 80004b8:	f080 809a 	bcs.w	80005f0 <__adddf3+0x240>
 80004bc:	f1bc 4f00 	cmp.w	ip, #2147483648	; 0x80000000
 80004c0:	bf08      	it	eq
 80004c2:	ea5f 0c50 	movseq.w	ip, r0, lsr #1
 80004c6:	f150 0000 	adcs.w	r0, r0, #0
 80004ca:	eb41 5104 	adc.w	r1, r1, r4, lsl #20
 80004ce:	ea41 0105 	orr.w	r1, r1, r5
 80004d2:	bd30      	pop	{r4, r5, pc}
 80004d4:	ea5f 0c4c 	movs.w	ip, ip, lsl #1
 80004d8:	4140      	adcs	r0, r0
 80004da:	eb41 0101 	adc.w	r1, r1, r1
 80004de:	3c01      	subs	r4, #1
 80004e0:	bf28      	it	cs
 80004e2:	f5b1 1f80 	cmpcs.w	r1, #1048576	; 0x100000
 80004e6:	d2e9      	bcs.n	80004bc <__adddf3+0x10c>
 80004e8:	f091 0f00 	teq	r1, #0
 80004ec:	bf04      	itt	eq
 80004ee:	4601      	moveq	r1, r0
 80004f0:	2000      	moveq	r0, #0
 80004f2:	fab1 f381 	clz	r3, r1
 80004f6:	bf08      	it	eq
 80004f8:	3320      	addeq	r3, #32
 80004fa:	f1a3 030b 	sub.w	r3, r3, #11
 80004fe:	f1b3 0220 	subs.w	r2, r3, #32
 8000502:	da0c      	bge.n	800051e <__adddf3+0x16e>
 8000504:	320c      	adds	r2, #12
 8000506:	dd08      	ble.n	800051a <__adddf3+0x16a>
 8000508:	f102 0c14 	add.w	ip, r2, #20
 800050c:	f1c2 020c 	rsb	r2, r2, #12
 8000510:	fa01 f00c 	lsl.w	r0, r1, ip
 8000514:	fa21 f102 	lsr.w	r1, r1, r2
 8000518:	e00c      	b.n	8000534 <__adddf3+0x184>
 800051a:	f102 0214 	add.w	r2, r2, #20
 800051e:	bfd8      	it	le
 8000520:	f1c2 0c20 	rsble	ip, r2, #32
 8000524:	fa01 f102 	lsl.w	r1, r1, r2
 8000528:	fa20 fc0c 	lsr.w	ip, r0, ip
 800052c:	bfdc      	itt	le
 800052e:	ea41 010c 	orrle.w	r1, r1, ip
 8000532:	4090      	lslle	r0, r2
 8000534:	1ae4      	subs	r4, r4, r3
 8000536:	bfa2      	ittt	ge
 8000538:	eb01 5104 	addge.w	r1, r1, r4, lsl #20
 800053c:	4329      	orrge	r1, r5
 800053e:	bd30      	popge	{r4, r5, pc}
 8000540:	ea6f 0404 	mvn.w	r4, r4
 8000544:	3c1f      	subs	r4, #31
 8000546:	da1c      	bge.n	8000582 <__adddf3+0x1d2>
 8000548:	340c      	adds	r4, #12
 800054a:	dc0e      	bgt.n	800056a <__adddf3+0x1ba>
 800054c:	f104 0414 	add.w	r4, r4, #20
 8000550:	f1c4 0220 	rsb	r2, r4, #32
 8000554:	fa20 f004 	lsr.w	r0, r0, r4
 8000558:	fa01 f302 	lsl.w	r3, r1, r2
 800055c:	ea40 0003 	orr.w	r0, r0, r3
 8000560:	fa21 f304 	lsr.w	r3, r1, r4
 8000564:	ea45 0103 	orr.w	r1, r5, r3
 8000568:	bd30      	pop	{r4, r5, pc}
 800056a:	f1c4 040c 	rsb	r4, r4, #12
 800056e:	f1c4 0220 	rsb	r2, r4, #32
 8000572:	fa20 f002 	lsr.w	r0, r0, r2
 8000576:	fa01 f304 	lsl.w	r3, r1, r4
 800057a:	ea40 0003 	orr.w	r0, r0, r3
 800057e:	4629      	mov	r1, r5
 8000580:	bd30      	pop	{r4, r5, pc}
 8000582:	fa21 f004 	lsr.w	r0, r1, r4
 8000586:	4629      	mov	r1, r5
 8000588:	bd30      	pop	{r4, r5, pc}
 800058a:	f094 0f00 	teq	r4, #0
 800058e:	f483 1380 	eor.w	r3, r3, #1048576	; 0x100000
 8000592:	bf06      	itte	eq
 8000594:	f481 1180 	eoreq.w	r1, r1, #1048576	; 0x100000
 8000598:	3401      	addeq	r4, #1
 800059a:	3d01      	subne	r5, #1
 800059c:	e74e      	b.n	800043c <__adddf3+0x8c>
 800059e:	ea7f 5c64 	mvns.w	ip, r4, asr #21
 80005a2:	bf18      	it	ne
 80005a4:	ea7f 5c65 	mvnsne.w	ip, r5, asr #21
 80005a8:	d029      	beq.n	80005fe <__adddf3+0x24e>
 80005aa:	ea94 0f05 	teq	r4, r5
 80005ae:	bf08      	it	eq
 80005b0:	ea90 0f02 	teqeq	r0, r2
 80005b4:	d005      	beq.n	80005c2 <__adddf3+0x212>
 80005b6:	ea54 0c00 	orrs.w	ip, r4, r0
 80005ba:	bf04      	itt	eq
 80005bc:	4619      	moveq	r1, r3
 80005be:	4610      	moveq	r0, r2
 80005c0:	bd30      	pop	{r4, r5, pc}
 80005c2:	ea91 0f03 	teq	r1, r3
 80005c6:	bf1e      	ittt	ne
 80005c8:	2100      	movne	r1, #0
 80005ca:	2000      	movne	r0, #0
 80005cc:	bd30      	popne	{r4, r5, pc}
 80005ce:	ea5f 5c54 	movs.w	ip, r4, lsr #21
 80005d2:	d105      	bne.n	80005e0 <__adddf3+0x230>
 80005d4:	0040      	lsls	r0, r0, #1
 80005d6:	4149      	adcs	r1, r1
 80005d8:	bf28      	it	cs
 80005da:	f041 4100 	orrcs.w	r1, r1, #2147483648	; 0x80000000
 80005de:	bd30      	pop	{r4, r5, pc}
 80005e0:	f514 0480 	adds.w	r4, r4, #4194304	; 0x400000
 80005e4:	bf3c      	itt	cc
 80005e6:	f501 1180 	addcc.w	r1, r1, #1048576	; 0x100000
 80005ea:	bd30      	popcc	{r4, r5, pc}
 80005ec:	f001 4500 	and.w	r5, r1, #2147483648	; 0x80000000
 80005f0:	f045 41fe 	orr.w	r1, r5, #2130706432	; 0x7f000000
 80005f4:	f441 0170 	orr.w	r1, r1, #15728640	; 0xf00000
 80005f8:	f04f 0000 	mov.w	r0, #0
 80005fc:	bd30      	pop	{r4, r5, pc}
 80005fe:	ea7f 5c64 	mvns.w	ip, r4, asr #21
 8000602:	bf1a      	itte	ne
 8000604:	4619      	movne	r1, r3
 8000606:	4610      	movne	r0, r2
 8000608:	ea7f 5c65 	mvnseq.w	ip, r5, asr #21
 800060c:	bf1c      	itt	ne
 800060e:	460b      	movne	r3, r1
 8000610:	4602      	movne	r2, r0
 8000612:	ea50 3401 	orrs.w	r4, r0, r1, lsl #12
 8000616:	bf06      	itte	eq
 8000618:	ea52 3503 	orrseq.w	r5, r2, r3, lsl #12
 800061c:	ea91 0f03 	teqeq	r1, r3
 8000620:	f441 2100 	orrne.w	r1, r1, #524288	; 0x80000
 8000624:	bd30      	pop	{r4, r5, pc}
 8000626:	bf00      	nop

08000628 <__aeabi_ui2d>:
 8000628:	f090 0f00 	teq	r0, #0
 800062c:	bf04      	itt	eq
 800062e:	2100      	moveq	r1, #0
 8000630:	4770      	bxeq	lr
 8000632:	b530      	push	{r4, r5, lr}
 8000634:	f44f 6480 	mov.w	r4, #1024	; 0x400
 8000638:	f104 0432 	add.w	r4, r4, #50	; 0x32
 800063c:	f04f 0500 	mov.w	r5, #0
 8000640:	f04f 0100 	mov.w	r1, #0
 8000644:	e750      	b.n	80004e8 <__adddf3+0x138>
 8000646:	bf00      	nop

08000648 <__aeabi_i2d>:
 8000648:	f090 0f00 	teq	r0, #0
 800064c:	bf04      	itt	eq
 800064e:	2100      	moveq	r1, #0
 8000650:	4770      	bxeq	lr
 8000652:	b530      	push	{r4, r5, lr}
 8000654:	f44f 6480 	mov.w	r4, #1024	; 0x400
 8000658:	f104 0432 	add.w	r4, r4, #50	; 0x32
 800065c:	f010 4500 	ands.w	r5, r0, #2147483648	; 0x80000000
 8000660:	bf48      	it	mi
 8000662:	4240      	negmi	r0, r0
 8000664:	f04f 0100 	mov.w	r1, #0
 8000668:	e73e      	b.n	80004e8 <__adddf3+0x138>
 800066a:	bf00      	nop

0800066c <__aeabi_f2d>:
 800066c:	0042      	lsls	r2, r0, #1
 800066e:	ea4f 01e2 	mov.w	r1, r2, asr #3
 8000672:	ea4f 0131 	mov.w	r1, r1, rrx
 8000676:	ea4f 7002 	mov.w	r0, r2, lsl #28
 800067a:	bf1f      	itttt	ne
 800067c:	f012 437f 	andsne.w	r3, r2, #4278190080	; 0xff000000
 8000680:	f093 4f7f 	teqne	r3, #4278190080	; 0xff000000
 8000684:	f081 5160 	eorne.w	r1, r1, #939524096	; 0x38000000
 8000688:	4770      	bxne	lr
 800068a:	f032 427f 	bics.w	r2, r2, #4278190080	; 0xff000000
 800068e:	bf08      	it	eq
 8000690:	4770      	bxeq	lr
 8000692:	f093 4f7f 	teq	r3, #4278190080	; 0xff000000
 8000696:	bf04      	itt	eq
 8000698:	f441 2100 	orreq.w	r1, r1, #524288	; 0x80000
 800069c:	4770      	bxeq	lr
 800069e:	b530      	push	{r4, r5, lr}
 80006a0:	f44f 7460 	mov.w	r4, #896	; 0x380
 80006a4:	f001 4500 	and.w	r5, r1, #2147483648	; 0x80000000
 80006a8:	f021 4100 	bic.w	r1, r1, #2147483648	; 0x80000000
 80006ac:	e71c      	b.n	80004e8 <__adddf3+0x138>
 80006ae:	bf00      	nop

080006b0 <__aeabi_ul2d>:
 80006b0:	ea50 0201 	orrs.w	r2, r0, r1
 80006b4:	bf08      	it	eq
 80006b6:	4770      	bxeq	lr
 80006b8:	b530      	push	{r4, r5, lr}
 80006ba:	f04f 0500 	mov.w	r5, #0
 80006be:	e00a      	b.n	80006d6 <__aeabi_l2d+0x16>

080006c0 <__aeabi_l2d>:
 80006c0:	ea50 0201 	orrs.w	r2, r0, r1
 80006c4:	bf08      	it	eq
 80006c6:	4770      	bxeq	lr
 80006c8:	b530      	push	{r4, r5, lr}
 80006ca:	f011 4500 	ands.w	r5, r1, #2147483648	; 0x80000000
 80006ce:	d502      	bpl.n	80006d6 <__aeabi_l2d+0x16>
 80006d0:	4240      	negs	r0, r0
 80006d2:	eb61 0141 	sbc.w	r1, r1, r1, lsl #1
 80006d6:	f44f 6480 	mov.w	r4, #1024	; 0x400
 80006da:	f104 0432 	add.w	r4, r4, #50	; 0x32
 80006de:	ea5f 5c91 	movs.w	ip, r1, lsr #22
 80006e2:	f43f aed8 	beq.w	8000496 <__adddf3+0xe6>
 80006e6:	f04f 0203 	mov.w	r2, #3
 80006ea:	ea5f 0cdc 	movs.w	ip, ip, lsr #3
 80006ee:	bf18      	it	ne
 80006f0:	3203      	addne	r2, #3
 80006f2:	ea5f 0cdc 	movs.w	ip, ip, lsr #3
 80006f6:	bf18      	it	ne
 80006f8:	3203      	addne	r2, #3
 80006fa:	eb02 02dc 	add.w	r2, r2, ip, lsr #3
 80006fe:	f1c2 0320 	rsb	r3, r2, #32
 8000702:	fa00 fc03 	lsl.w	ip, r0, r3
 8000706:	fa20 f002 	lsr.w	r0, r0, r2
 800070a:	fa01 fe03 	lsl.w	lr, r1, r3
 800070e:	ea40 000e 	orr.w	r0, r0, lr
 8000712:	fa21 f102 	lsr.w	r1, r1, r2
 8000716:	4414      	add	r4, r2
 8000718:	e6bd      	b.n	8000496 <__adddf3+0xe6>
 800071a:	bf00      	nop

0800071c <__aeabi_d2f>:
 800071c:	ea4f 0241 	mov.w	r2, r1, lsl #1
 8000720:	f1b2 43e0 	subs.w	r3, r2, #1879048192	; 0x70000000
 8000724:	bf24      	itt	cs
 8000726:	f5b3 1c00 	subscs.w	ip, r3, #2097152	; 0x200000
 800072a:	f1dc 5cfe 	rsbscs	ip, ip, #532676608	; 0x1fc00000
 800072e:	d90d      	bls.n	800074c <__aeabi_d2f+0x30>
 8000730:	f001 4c00 	and.w	ip, r1, #2147483648	; 0x80000000
 8000734:	ea4f 02c0 	mov.w	r2, r0, lsl #3
 8000738:	ea4c 7050 	orr.w	r0, ip, r0, lsr #29
 800073c:	f1b2 4f00 	cmp.w	r2, #2147483648	; 0x80000000
 8000740:	eb40 0083 	adc.w	r0, r0, r3, lsl #2
 8000744:	bf08      	it	eq
 8000746:	f020 0001 	biceq.w	r0, r0, #1
 800074a:	4770      	bx	lr
 800074c:	f011 4f80 	tst.w	r1, #1073741824	; 0x40000000
 8000750:	d121      	bne.n	8000796 <__aeabi_d2f+0x7a>
 8000752:	f113 7238 	adds.w	r2, r3, #48234496	; 0x2e00000
 8000756:	bfbc      	itt	lt
 8000758:	f001 4000 	andlt.w	r0, r1, #2147483648	; 0x80000000
 800075c:	4770      	bxlt	lr
 800075e:	f441 1180 	orr.w	r1, r1, #1048576	; 0x100000
 8000762:	ea4f 5252 	mov.w	r2, r2, lsr #21
 8000766:	f1c2 0218 	rsb	r2, r2, #24
 800076a:	f1c2 0c20 	rsb	ip, r2, #32
 800076e:	fa10 f30c 	lsls.w	r3, r0, ip
 8000772:	fa20 f002 	lsr.w	r0, r0, r2
 8000776:	bf18      	it	ne
 8000778:	f040 0001 	orrne.w	r0, r0, #1
 800077c:	ea4f 23c1 	mov.w	r3, r1, lsl #11
 8000780:	ea4f 23d3 	mov.w	r3, r3, lsr #11
 8000784:	fa03 fc0c 	lsl.w	ip, r3, ip
 8000788:	ea40 000c 	orr.w	r0, r0, ip
 800078c:	fa23 f302 	lsr.w	r3, r3, r2
 8000790:	ea4f 0343 	mov.w	r3, r3, lsl #1
 8000794:	e7cc      	b.n	8000730 <__aeabi_d2f+0x14>
 8000796:	ea7f 5362 	mvns.w	r3, r2, asr #21
 800079a:	d107      	bne.n	80007ac <__aeabi_d2f+0x90>
 800079c:	ea50 3301 	orrs.w	r3, r0, r1, lsl #12
 80007a0:	bf1e      	ittt	ne
 80007a2:	f04f 40fe 	movne.w	r0, #2130706432	; 0x7f000000
 80007a6:	f440 0040 	orrne.w	r0, r0, #12582912	; 0xc00000
 80007aa:	4770      	bxne	lr
 80007ac:	f001 4000 	and.w	r0, r1, #2147483648	; 0x80000000
 80007b0:	f040 40fe 	orr.w	r0, r0, #2130706432	; 0x7f000000
 80007b4:	f440 0000 	orr.w	r0, r0, #8388608	; 0x800000
 80007b8:	4770      	bx	lr
 80007ba:	bf00      	nop

080007bc <__aeabi_frsub>:
 80007bc:	f080 4000 	eor.w	r0, r0, #2147483648	; 0x80000000
 80007c0:	e002      	b.n	80007c8 <__addsf3>
 80007c2:	bf00      	nop

080007c4 <__aeabi_fsub>:
 80007c4:	f081 4100 	eor.w	r1, r1, #2147483648	; 0x80000000

080007c8 <__addsf3>:
 80007c8:	0042      	lsls	r2, r0, #1
 80007ca:	bf1f      	itttt	ne
 80007cc:	ea5f 0341 	movsne.w	r3, r1, lsl #1
 80007d0:	ea92 0f03 	teqne	r2, r3
 80007d4:	ea7f 6c22 	mvnsne.w	ip, r2, asr #24
 80007d8:	ea7f 6c23 	mvnsne.w	ip, r3, asr #24
 80007dc:	d06a      	beq.n	80008b4 <__addsf3+0xec>
 80007de:	ea4f 6212 	mov.w	r2, r2, lsr #24
 80007e2:	ebd2 6313 	rsbs	r3, r2, r3, lsr #24
 80007e6:	bfc1      	itttt	gt
 80007e8:	18d2      	addgt	r2, r2, r3
 80007ea:	4041      	eorgt	r1, r0
 80007ec:	4048      	eorgt	r0, r1
 80007ee:	4041      	eorgt	r1, r0
 80007f0:	bfb8      	it	lt
 80007f2:	425b      	neglt	r3, r3
 80007f4:	2b19      	cmp	r3, #25
 80007f6:	bf88      	it	hi
 80007f8:	4770      	bxhi	lr
 80007fa:	f010 4f00 	tst.w	r0, #2147483648	; 0x80000000
 80007fe:	f440 0000 	orr.w	r0, r0, #8388608	; 0x800000
 8000802:	f020 407f 	bic.w	r0, r0, #4278190080	; 0xff000000
 8000806:	bf18      	it	ne
 8000808:	4240      	negne	r0, r0
 800080a:	f011 4f00 	tst.w	r1, #2147483648	; 0x80000000
 800080e:	f441 0100 	orr.w	r1, r1, #8388608	; 0x800000
 8000812:	f021 417f 	bic.w	r1, r1, #4278190080	; 0xff000000
 8000816:	bf18      	it	ne
 8000818:	4249      	negne	r1, r1
 800081a:	ea92 0f03 	teq	r2, r3
 800081e:	d03f      	beq.n	80008a0 <__addsf3+0xd8>
 8000820:	f1a2 0201 	sub.w	r2, r2, #1
 8000824:	fa41 fc03 	asr.w	ip, r1, r3
 8000828:	eb10 000c 	adds.w	r0, r0, ip
 800082c:	f1c3 0320 	rsb	r3, r3, #32
 8000830:	fa01 f103 	lsl.w	r1, r1, r3
 8000834:	f000 4300 	and.w	r3, r0, #2147483648	; 0x80000000
 8000838:	d502      	bpl.n	8000840 <__addsf3+0x78>
 800083a:	4249      	negs	r1, r1
 800083c:	eb60 0040 	sbc.w	r0, r0, r0, lsl #1
 8000840:	f5b0 0f00 	cmp.w	r0, #8388608	; 0x800000
 8000844:	d313      	bcc.n	800086e <__addsf3+0xa6>
 8000846:	f1b0 7f80 	cmp.w	r0, #16777216	; 0x1000000
 800084a:	d306      	bcc.n	800085a <__addsf3+0x92>
 800084c:	0840      	lsrs	r0, r0, #1
 800084e:	ea4f 0131 	mov.w	r1, r1, rrx
 8000852:	f102 0201 	add.w	r2, r2, #1
 8000856:	2afe      	cmp	r2, #254	; 0xfe
 8000858:	d251      	bcs.n	80008fe <__addsf3+0x136>
 800085a:	f1b1 4f00 	cmp.w	r1, #2147483648	; 0x80000000
 800085e:	eb40 50c2 	adc.w	r0, r0, r2, lsl #23
 8000862:	bf08      	it	eq
 8000864:	f020 0001 	biceq.w	r0, r0, #1
 8000868:	ea40 0003 	orr.w	r0, r0, r3
 800086c:	4770      	bx	lr
 800086e:	0049      	lsls	r1, r1, #1
 8000870:	eb40 0000 	adc.w	r0, r0, r0
 8000874:	3a01      	subs	r2, #1
 8000876:	bf28      	it	cs
 8000878:	f5b0 0f00 	cmpcs.w	r0, #8388608	; 0x800000
 800087c:	d2ed      	bcs.n	800085a <__addsf3+0x92>
 800087e:	fab0 fc80 	clz	ip, r0
 8000882:	f1ac 0c08 	sub.w	ip, ip, #8
 8000886:	ebb2 020c 	subs.w	r2, r2, ip
 800088a:	fa00 f00c 	lsl.w	r0, r0, ip
 800088e:	bfaa      	itet	ge
 8000890:	eb00 50c2 	addge.w	r0, r0, r2, lsl #23
 8000894:	4252      	neglt	r2, r2
 8000896:	4318      	orrge	r0, r3
 8000898:	bfbc      	itt	lt
 800089a:	40d0      	lsrlt	r0, r2
 800089c:	4318      	orrlt	r0, r3
 800089e:	4770      	bx	lr
 80008a0:	f092 0f00 	teq	r2, #0
 80008a4:	f481 0100 	eor.w	r1, r1, #8388608	; 0x800000
 80008a8:	bf06      	itte	eq
 80008aa:	f480 0000 	eoreq.w	r0, r0, #8388608	; 0x800000
 80008ae:	3201      	addeq	r2, #1
 80008b0:	3b01      	subne	r3, #1
 80008b2:	e7b5      	b.n	8000820 <__addsf3+0x58>
 80008b4:	ea4f 0341 	mov.w	r3, r1, lsl #1
 80008b8:	ea7f 6c22 	mvns.w	ip, r2, asr #24
 80008bc:	bf18      	it	ne
 80008be:	ea7f 6c23 	mvnsne.w	ip, r3, asr #24
 80008c2:	d021      	beq.n	8000908 <__addsf3+0x140>
 80008c4:	ea92 0f03 	teq	r2, r3
 80008c8:	d004      	beq.n	80008d4 <__addsf3+0x10c>
 80008ca:	f092 0f00 	teq	r2, #0
 80008ce:	bf08      	it	eq
 80008d0:	4608      	moveq	r0, r1
 80008d2:	4770      	bx	lr
 80008d4:	ea90 0f01 	teq	r0, r1
 80008d8:	bf1c      	itt	ne
 80008da:	2000      	movne	r0, #0
 80008dc:	4770      	bxne	lr
 80008de:	f012 4f7f 	tst.w	r2, #4278190080	; 0xff000000
 80008e2:	d104      	bne.n	80008ee <__addsf3+0x126>
 80008e4:	0040      	lsls	r0, r0, #1
 80008e6:	bf28      	it	cs
 80008e8:	f040 4000 	orrcs.w	r0, r0, #2147483648	; 0x80000000
 80008ec:	4770      	bx	lr
 80008ee:	f112 7200 	adds.w	r2, r2, #33554432	; 0x2000000
 80008f2:	bf3c      	itt	cc
 80008f4:	f500 0000 	addcc.w	r0, r0, #8388608	; 0x800000
 80008f8:	4770      	bxcc	lr
 80008fa:	f000 4300 	and.w	r3, r0, #2147483648	; 0x80000000
 80008fe:	f043 40fe 	orr.w	r0, r3, #2130706432	; 0x7f000000
 8000902:	f440 0000 	orr.w	r0, r0, #8388608	; 0x800000
 8000906:	4770      	bx	lr
 8000908:	ea7f 6222 	mvns.w	r2, r2, asr #24
 800090c:	bf16      	itet	ne
 800090e:	4608      	movne	r0, r1
 8000910:	ea7f 6323 	mvnseq.w	r3, r3, asr #24
 8000914:	4601      	movne	r1, r0
 8000916:	0242      	lsls	r2, r0, #9
 8000918:	bf06      	itte	eq
 800091a:	ea5f 2341 	movseq.w	r3, r1, lsl #9
 800091e:	ea90 0f01 	teqeq	r0, r1
 8000922:	f440 0080 	orrne.w	r0, r0, #4194304	; 0x400000
 8000926:	4770      	bx	lr

08000928 <__aeabi_ui2f>:
 8000928:	f04f 0300 	mov.w	r3, #0
 800092c:	e004      	b.n	8000938 <__aeabi_i2f+0x8>
 800092e:	bf00      	nop

08000930 <__aeabi_i2f>:
 8000930:	f010 4300 	ands.w	r3, r0, #2147483648	; 0x80000000
 8000934:	bf48      	it	mi
 8000936:	4240      	negmi	r0, r0
 8000938:	ea5f 0c00 	movs.w	ip, r0
 800093c:	bf08      	it	eq
 800093e:	4770      	bxeq	lr
 8000940:	f043 4396 	orr.w	r3, r3, #1258291200	; 0x4b000000
 8000944:	4601      	mov	r1, r0
 8000946:	f04f 0000 	mov.w	r0, #0
 800094a:	e01c      	b.n	8000986 <__aeabi_l2f+0x2a>

0800094c <__aeabi_ul2f>:
 800094c:	ea50 0201 	orrs.w	r2, r0, r1
 8000950:	bf08      	it	eq
 8000952:	4770      	bxeq	lr
 8000954:	f04f 0300 	mov.w	r3, #0
 8000958:	e00a      	b.n	8000970 <__aeabi_l2f+0x14>
 800095a:	bf00      	nop

0800095c <__aeabi_l2f>:
 800095c:	ea50 0201 	orrs.w	r2, r0, r1
 8000960:	bf08      	it	eq
 8000962:	4770      	bxeq	lr
 8000964:	f011 4300 	ands.w	r3, r1, #2147483648	; 0x80000000
 8000968:	d502      	bpl.n	8000970 <__aeabi_l2f+0x14>
 800096a:	4240      	negs	r0, r0
 800096c:	eb61 0141 	sbc.w	r1, r1, r1, lsl #1
 8000970:	ea5f 0c01 	movs.w	ip, r1
 8000974:	bf02      	ittt	eq
 8000976:	4684      	moveq	ip, r0
 8000978:	4601      	moveq	r1, r0
 800097a:	2000      	moveq	r0, #0
 800097c:	f043 43b6 	orr.w	r3, r3, #1526726656	; 0x5b000000
 8000980:	bf08      	it	eq
 8000982:	f1a3 5380 	subeq.w	r3, r3, #268435456	; 0x10000000
 8000986:	f5a3 0300 	sub.w	r3, r3, #8388608	; 0x800000
 800098a:	fabc f28c 	clz	r2, ip
 800098e:	3a08      	subs	r2, #8
 8000990:	eba3 53c2 	sub.w	r3, r3, r2, lsl #23
 8000994:	db10      	blt.n	80009b8 <__aeabi_l2f+0x5c>
 8000996:	fa01 fc02 	lsl.w	ip, r1, r2
 800099a:	4463      	add	r3, ip
 800099c:	fa00 fc02 	lsl.w	ip, r0, r2
 80009a0:	f1c2 0220 	rsb	r2, r2, #32
 80009a4:	f1bc 4f00 	cmp.w	ip, #2147483648	; 0x80000000
 80009a8:	fa20 f202 	lsr.w	r2, r0, r2
 80009ac:	eb43 0002 	adc.w	r0, r3, r2
 80009b0:	bf08      	it	eq
 80009b2:	f020 0001 	biceq.w	r0, r0, #1
 80009b6:	4770      	bx	lr
 80009b8:	f102 0220 	add.w	r2, r2, #32
 80009bc:	fa01 fc02 	lsl.w	ip, r1, r2
 80009c0:	f1c2 0220 	rsb	r2, r2, #32
 80009c4:	ea50 004c 	orrs.w	r0, r0, ip, lsl #1
 80009c8:	fa21 f202 	lsr.w	r2, r1, r2
 80009cc:	eb43 0002 	adc.w	r0, r3, r2
 80009d0:	bf08      	it	eq
 80009d2:	ea20 70dc 	biceq.w	r0, r0, ip, lsr #31
 80009d6:	4770      	bx	lr

080009d8 <__aeabi_fmul>:
 80009d8:	f04f 0cff 	mov.w	ip, #255	; 0xff
 80009dc:	ea1c 52d0 	ands.w	r2, ip, r0, lsr #23
 80009e0:	bf1e      	ittt	ne
 80009e2:	ea1c 53d1 	andsne.w	r3, ip, r1, lsr #23
 80009e6:	ea92 0f0c 	teqne	r2, ip
 80009ea:	ea93 0f0c 	teqne	r3, ip
 80009ee:	d06f      	beq.n	8000ad0 <__aeabi_fmul+0xf8>
 80009f0:	441a      	add	r2, r3
 80009f2:	ea80 0c01 	eor.w	ip, r0, r1
 80009f6:	0240      	lsls	r0, r0, #9
 80009f8:	bf18      	it	ne
 80009fa:	ea5f 2141 	movsne.w	r1, r1, lsl #9
 80009fe:	d01e      	beq.n	8000a3e <__aeabi_fmul+0x66>
 8000a00:	f04f 6300 	mov.w	r3, #134217728	; 0x8000000
 8000a04:	ea43 1050 	orr.w	r0, r3, r0, lsr #5
 8000a08:	ea43 1151 	orr.w	r1, r3, r1, lsr #5
 8000a0c:	fba0 3101 	umull	r3, r1, r0, r1
 8000a10:	f00c 4000 	and.w	r0, ip, #2147483648	; 0x80000000
 8000a14:	f5b1 0f00 	cmp.w	r1, #8388608	; 0x800000
 8000a18:	bf3e      	ittt	cc
 8000a1a:	0049      	lslcc	r1, r1, #1
 8000a1c:	ea41 71d3 	orrcc.w	r1, r1, r3, lsr #31
 8000a20:	005b      	lslcc	r3, r3, #1
 8000a22:	ea40 0001 	orr.w	r0, r0, r1
 8000a26:	f162 027f 	sbc.w	r2, r2, #127	; 0x7f
 8000a2a:	2afd      	cmp	r2, #253	; 0xfd
 8000a2c:	d81d      	bhi.n	8000a6a <__aeabi_fmul+0x92>
 8000a2e:	f1b3 4f00 	cmp.w	r3, #2147483648	; 0x80000000
 8000a32:	eb40 50c2 	adc.w	r0, r0, r2, lsl #23
 8000a36:	bf08      	it	eq
 8000a38:	f020 0001 	biceq.w	r0, r0, #1
 8000a3c:	4770      	bx	lr
 8000a3e:	f090 0f00 	teq	r0, #0
 8000a42:	f00c 4c00 	and.w	ip, ip, #2147483648	; 0x80000000
 8000a46:	bf08      	it	eq
 8000a48:	0249      	lsleq	r1, r1, #9
 8000a4a:	ea4c 2050 	orr.w	r0, ip, r0, lsr #9
 8000a4e:	ea40 2051 	orr.w	r0, r0, r1, lsr #9
 8000a52:	3a7f      	subs	r2, #127	; 0x7f
 8000a54:	bfc2      	ittt	gt
 8000a56:	f1d2 03ff 	rsbsgt	r3, r2, #255	; 0xff
 8000a5a:	ea40 50c2 	orrgt.w	r0, r0, r2, lsl #23
 8000a5e:	4770      	bxgt	lr
 8000a60:	f440 0000 	orr.w	r0, r0, #8388608	; 0x800000
 8000a64:	f04f 0300 	mov.w	r3, #0
 8000a68:	3a01      	subs	r2, #1
 8000a6a:	dc5d      	bgt.n	8000b28 <__aeabi_fmul+0x150>
 8000a6c:	f112 0f19 	cmn.w	r2, #25
 8000a70:	bfdc      	itt	le
 8000a72:	f000 4000 	andle.w	r0, r0, #2147483648	; 0x80000000
 8000a76:	4770      	bxle	lr
 8000a78:	f1c2 0200 	rsb	r2, r2, #0
 8000a7c:	0041      	lsls	r1, r0, #1
 8000a7e:	fa21 f102 	lsr.w	r1, r1, r2
 8000a82:	f1c2 0220 	rsb	r2, r2, #32
 8000a86:	fa00 fc02 	lsl.w	ip, r0, r2
 8000a8a:	ea5f 0031 	movs.w	r0, r1, rrx
 8000a8e:	f140 0000 	adc.w	r0, r0, #0
 8000a92:	ea53 034c 	orrs.w	r3, r3, ip, lsl #1
 8000a96:	bf08      	it	eq
 8000a98:	ea20 70dc 	biceq.w	r0, r0, ip, lsr #31
 8000a9c:	4770      	bx	lr
 8000a9e:	f092 0f00 	teq	r2, #0
 8000aa2:	f000 4c00 	and.w	ip, r0, #2147483648	; 0x80000000
 8000aa6:	bf02      	ittt	eq
 8000aa8:	0040      	lsleq	r0, r0, #1
 8000aaa:	f410 0f00 	tsteq.w	r0, #8388608	; 0x800000
 8000aae:	3a01      	subeq	r2, #1
 8000ab0:	d0f9      	beq.n	8000aa6 <__aeabi_fmul+0xce>
 8000ab2:	ea40 000c 	orr.w	r0, r0, ip
 8000ab6:	f093 0f00 	teq	r3, #0
 8000aba:	f001 4c00 	and.w	ip, r1, #2147483648	; 0x80000000
 8000abe:	bf02      	ittt	eq
 8000ac0:	0049      	lsleq	r1, r1, #1
 8000ac2:	f411 0f00 	tsteq.w	r1, #8388608	; 0x800000
 8000ac6:	3b01      	subeq	r3, #1
 8000ac8:	d0f9      	beq.n	8000abe <__aeabi_fmul+0xe6>
 8000aca:	ea41 010c 	orr.w	r1, r1, ip
 8000ace:	e78f      	b.n	80009f0 <__aeabi_fmul+0x18>
 8000ad0:	ea0c 53d1 	and.w	r3, ip, r1, lsr #23
 8000ad4:	ea92 0f0c 	teq	r2, ip
 8000ad8:	bf18      	it	ne
 8000ada:	ea93 0f0c 	teqne	r3, ip
 8000ade:	d00a      	beq.n	8000af6 <__aeabi_fmul+0x11e>
 8000ae0:	f030 4c00 	bics.w	ip, r0, #2147483648	; 0x80000000
 8000ae4:	bf18      	it	ne
 8000ae6:	f031 4c00 	bicsne.w	ip, r1, #2147483648	; 0x80000000
 8000aea:	d1d8      	bne.n	8000a9e <__aeabi_fmul+0xc6>
 8000aec:	ea80 0001 	eor.w	r0, r0, r1
 8000af0:	f000 4000 	and.w	r0, r0, #2147483648	; 0x80000000
 8000af4:	4770      	bx	lr
 8000af6:	f090 0f00 	teq	r0, #0
 8000afa:	bf17      	itett	ne
 8000afc:	f090 4f00 	teqne	r0, #2147483648	; 0x80000000
 8000b00:	4608      	moveq	r0, r1
 8000b02:	f091 0f00 	teqne	r1, #0
 8000b06:	f091 4f00 	teqne	r1, #2147483648	; 0x80000000
 8000b0a:	d014      	beq.n	8000b36 <__aeabi_fmul+0x15e>
 8000b0c:	ea92 0f0c 	teq	r2, ip
 8000b10:	d101      	bne.n	8000b16 <__aeabi_fmul+0x13e>
 8000b12:	0242      	lsls	r2, r0, #9
 8000b14:	d10f      	bne.n	8000b36 <__aeabi_fmul+0x15e>
 8000b16:	ea93 0f0c 	teq	r3, ip
 8000b1a:	d103      	bne.n	8000b24 <__aeabi_fmul+0x14c>
 8000b1c:	024b      	lsls	r3, r1, #9
 8000b1e:	bf18      	it	ne
 8000b20:	4608      	movne	r0, r1
 8000b22:	d108      	bne.n	8000b36 <__aeabi_fmul+0x15e>
 8000b24:	ea80 0001 	eor.w	r0, r0, r1
 8000b28:	f000 4000 	and.w	r0, r0, #2147483648	; 0x80000000
 8000b2c:	f040 40fe 	orr.w	r0, r0, #2130706432	; 0x7f000000
 8000b30:	f440 0000 	orr.w	r0, r0, #8388608	; 0x800000
 8000b34:	4770      	bx	lr
 8000b36:	f040 40fe 	orr.w	r0, r0, #2130706432	; 0x7f000000
 8000b3a:	f440 0040 	orr.w	r0, r0, #12582912	; 0xc00000
 8000b3e:	4770      	bx	lr

08000b40 <__aeabi_fdiv>:
 8000b40:	f04f 0cff 	mov.w	ip, #255	; 0xff
 8000b44:	ea1c 52d0 	ands.w	r2, ip, r0, lsr #23
 8000b48:	bf1e      	ittt	ne
 8000b4a:	ea1c 53d1 	andsne.w	r3, ip, r1, lsr #23
 8000b4e:	ea92 0f0c 	teqne	r2, ip
 8000b52:	ea93 0f0c 	teqne	r3, ip
 8000b56:	d069      	beq.n	8000c2c <__aeabi_fdiv+0xec>
 8000b58:	eba2 0203 	sub.w	r2, r2, r3
 8000b5c:	ea80 0c01 	eor.w	ip, r0, r1
 8000b60:	0249      	lsls	r1, r1, #9
 8000b62:	ea4f 2040 	mov.w	r0, r0, lsl #9
 8000b66:	d037      	beq.n	8000bd8 <__aeabi_fdiv+0x98>
 8000b68:	f04f 5380 	mov.w	r3, #268435456	; 0x10000000
 8000b6c:	ea43 1111 	orr.w	r1, r3, r1, lsr #4
 8000b70:	ea43 1310 	orr.w	r3, r3, r0, lsr #4
 8000b74:	f00c 4000 	and.w	r0, ip, #2147483648	; 0x80000000
 8000b78:	428b      	cmp	r3, r1
 8000b7a:	bf38      	it	cc
 8000b7c:	005b      	lslcc	r3, r3, #1
 8000b7e:	f142 027d 	adc.w	r2, r2, #125	; 0x7d
 8000b82:	f44f 0c00 	mov.w	ip, #8388608	; 0x800000
 8000b86:	428b      	cmp	r3, r1
 8000b88:	bf24      	itt	cs
 8000b8a:	1a5b      	subcs	r3, r3, r1
 8000b8c:	ea40 000c 	orrcs.w	r0, r0, ip
 8000b90:	ebb3 0f51 	cmp.w	r3, r1, lsr #1
 8000b94:	bf24      	itt	cs
 8000b96:	eba3 0351 	subcs.w	r3, r3, r1, lsr #1
 8000b9a:	ea40 005c 	orrcs.w	r0, r0, ip, lsr #1
 8000b9e:	ebb3 0f91 	cmp.w	r3, r1, lsr #2
 8000ba2:	bf24      	itt	cs
 8000ba4:	eba3 0391 	subcs.w	r3, r3, r1, lsr #2
 8000ba8:	ea40 009c 	orrcs.w	r0, r0, ip, lsr #2
 8000bac:	ebb3 0fd1 	cmp.w	r3, r1, lsr #3
 8000bb0:	bf24      	itt	cs
 8000bb2:	eba3 03d1 	subcs.w	r3, r3, r1, lsr #3
 8000bb6:	ea40 00dc 	orrcs.w	r0, r0, ip, lsr #3
 8000bba:	011b      	lsls	r3, r3, #4
 8000bbc:	bf18      	it	ne
 8000bbe:	ea5f 1c1c 	movsne.w	ip, ip, lsr #4
 8000bc2:	d1e0      	bne.n	8000b86 <__aeabi_fdiv+0x46>
 8000bc4:	2afd      	cmp	r2, #253	; 0xfd
 8000bc6:	f63f af50 	bhi.w	8000a6a <__aeabi_fmul+0x92>
 8000bca:	428b      	cmp	r3, r1
 8000bcc:	eb40 50c2 	adc.w	r0, r0, r2, lsl #23
 8000bd0:	bf08      	it	eq
 8000bd2:	f020 0001 	biceq.w	r0, r0, #1
 8000bd6:	4770      	bx	lr
 8000bd8:	f00c 4c00 	and.w	ip, ip, #2147483648	; 0x80000000
 8000bdc:	ea4c 2050 	orr.w	r0, ip, r0, lsr #9
 8000be0:	327f      	adds	r2, #127	; 0x7f
 8000be2:	bfc2      	ittt	gt
 8000be4:	f1d2 03ff 	rsbsgt	r3, r2, #255	; 0xff
 8000be8:	ea40 50c2 	orrgt.w	r0, r0, r2, lsl #23
 8000bec:	4770      	bxgt	lr
 8000bee:	f440 0000 	orr.w	r0, r0, #8388608	; 0x800000
 8000bf2:	f04f 0300 	mov.w	r3, #0
 8000bf6:	3a01      	subs	r2, #1
 8000bf8:	e737      	b.n	8000a6a <__aeabi_fmul+0x92>
 8000bfa:	f092 0f00 	teq	r2, #0
 8000bfe:	f000 4c00 	and.w	ip, r0, #2147483648	; 0x80000000
 8000c02:	bf02      	ittt	eq
 8000c04:	0040      	lsleq	r0, r0, #1
 8000c06:	f410 0f00 	tsteq.w	r0, #8388608	; 0x800000
 8000c0a:	3a01      	subeq	r2, #1
 8000c0c:	d0f9      	beq.n	8000c02 <__aeabi_fdiv+0xc2>
 8000c0e:	ea40 000c 	orr.w	r0, r0, ip
 8000c12:	f093 0f00 	teq	r3, #0
 8000c16:	f001 4c00 	and.w	ip, r1, #2147483648	; 0x80000000
 8000c1a:	bf02      	ittt	eq
 8000c1c:	0049      	lsleq	r1, r1, #1
 8000c1e:	f411 0f00 	tsteq.w	r1, #8388608	; 0x800000
 8000c22:	3b01      	subeq	r3, #1
 8000c24:	d0f9      	beq.n	8000c1a <__aeabi_fdiv+0xda>
 8000c26:	ea41 010c 	orr.w	r1, r1, ip
 8000c2a:	e795      	b.n	8000b58 <__aeabi_fdiv+0x18>
 8000c2c:	ea0c 53d1 	and.w	r3, ip, r1, lsr #23
 8000c30:	ea92 0f0c 	teq	r2, ip
 8000c34:	d108      	bne.n	8000c48 <__aeabi_fdiv+0x108>
 8000c36:	0242      	lsls	r2, r0, #9
 8000c38:	f47f af7d 	bne.w	8000b36 <__aeabi_fmul+0x15e>
 8000c3c:	ea93 0f0c 	teq	r3, ip
 8000c40:	f47f af70 	bne.w	8000b24 <__aeabi_fmul+0x14c>
 8000c44:	4608      	mov	r0, r1
 8000c46:	e776      	b.n	8000b36 <__aeabi_fmul+0x15e>
 8000c48:	ea93 0f0c 	teq	r3, ip
 8000c4c:	d104      	bne.n	8000c58 <__aeabi_fdiv+0x118>
 8000c4e:	024b      	lsls	r3, r1, #9
 8000c50:	f43f af4c 	beq.w	8000aec <__aeabi_fmul+0x114>
 8000c54:	4608      	mov	r0, r1
 8000c56:	e76e      	b.n	8000b36 <__aeabi_fmul+0x15e>
 8000c58:	f030 4c00 	bics.w	ip, r0, #2147483648	; 0x80000000
 8000c5c:	bf18      	it	ne
 8000c5e:	f031 4c00 	bicsne.w	ip, r1, #2147483648	; 0x80000000
 8000c62:	d1ca      	bne.n	8000bfa <__aeabi_fdiv+0xba>
 8000c64:	f030 4200 	bics.w	r2, r0, #2147483648	; 0x80000000
 8000c68:	f47f af5c 	bne.w	8000b24 <__aeabi_fmul+0x14c>
 8000c6c:	f031 4300 	bics.w	r3, r1, #2147483648	; 0x80000000
 8000c70:	f47f af3c 	bne.w	8000aec <__aeabi_fmul+0x114>
 8000c74:	e75f      	b.n	8000b36 <__aeabi_fmul+0x15e>
 8000c76:	bf00      	nop

08000c78 <__gesf2>:
 8000c78:	f04f 3cff 	mov.w	ip, #4294967295
 8000c7c:	e006      	b.n	8000c8c <__cmpsf2+0x4>
 8000c7e:	bf00      	nop

08000c80 <__lesf2>:
 8000c80:	f04f 0c01 	mov.w	ip, #1
 8000c84:	e002      	b.n	8000c8c <__cmpsf2+0x4>
 8000c86:	bf00      	nop

08000c88 <__cmpsf2>:
 8000c88:	f04f 0c01 	mov.w	ip, #1
 8000c8c:	f84d cd04 	str.w	ip, [sp, #-4]!
 8000c90:	ea4f 0240 	mov.w	r2, r0, lsl #1
 8000c94:	ea4f 0341 	mov.w	r3, r1, lsl #1
 8000c98:	ea7f 6c22 	mvns.w	ip, r2, asr #24
 8000c9c:	bf18      	it	ne
 8000c9e:	ea7f 6c23 	mvnsne.w	ip, r3, asr #24
 8000ca2:	d011      	beq.n	8000cc8 <__cmpsf2+0x40>
 8000ca4:	b001      	add	sp, #4
 8000ca6:	ea52 0c53 	orrs.w	ip, r2, r3, lsr #1
 8000caa:	bf18      	it	ne
 8000cac:	ea90 0f01 	teqne	r0, r1
 8000cb0:	bf58      	it	pl
 8000cb2:	ebb2 0003 	subspl.w	r0, r2, r3
 8000cb6:	bf88      	it	hi
 8000cb8:	17c8      	asrhi	r0, r1, #31
 8000cba:	bf38      	it	cc
 8000cbc:	ea6f 70e1 	mvncc.w	r0, r1, asr #31
 8000cc0:	bf18      	it	ne
 8000cc2:	f040 0001 	orrne.w	r0, r0, #1
 8000cc6:	4770      	bx	lr
 8000cc8:	ea7f 6c22 	mvns.w	ip, r2, asr #24
 8000ccc:	d102      	bne.n	8000cd4 <__cmpsf2+0x4c>
 8000cce:	ea5f 2c40 	movs.w	ip, r0, lsl #9
 8000cd2:	d105      	bne.n	8000ce0 <__cmpsf2+0x58>
 8000cd4:	ea7f 6c23 	mvns.w	ip, r3, asr #24
 8000cd8:	d1e4      	bne.n	8000ca4 <__cmpsf2+0x1c>
 8000cda:	ea5f 2c41 	movs.w	ip, r1, lsl #9
 8000cde:	d0e1      	beq.n	8000ca4 <__cmpsf2+0x1c>
 8000ce0:	f85d 0b04 	ldr.w	r0, [sp], #4
 8000ce4:	4770      	bx	lr
 8000ce6:	bf00      	nop

08000ce8 <__aeabi_cfrcmple>:
 8000ce8:	4684      	mov	ip, r0
 8000cea:	4608      	mov	r0, r1
 8000cec:	4661      	mov	r1, ip
 8000cee:	e7ff      	b.n	8000cf0 <__aeabi_cfcmpeq>

08000cf0 <__aeabi_cfcmpeq>:
 8000cf0:	b50f      	push	{r0, r1, r2, r3, lr}
 8000cf2:	f7ff ffc9 	bl	8000c88 <__cmpsf2>
 8000cf6:	2800      	cmp	r0, #0
 8000cf8:	bf48      	it	mi
 8000cfa:	f110 0f00 	cmnmi.w	r0, #0
 8000cfe:	bd0f      	pop	{r0, r1, r2, r3, pc}

08000d00 <__aeabi_fcmpeq>:
 8000d00:	f84d ed08 	str.w	lr, [sp, #-8]!
 8000d04:	f7ff fff4 	bl	8000cf0 <__aeabi_cfcmpeq>
 8000d08:	bf0c      	ite	eq
 8000d0a:	2001      	moveq	r0, #1
 8000d0c:	2000      	movne	r0, #0
 8000d0e:	f85d fb08 	ldr.w	pc, [sp], #8
 8000d12:	bf00      	nop

08000d14 <__aeabi_fcmplt>:
 8000d14:	f84d ed08 	str.w	lr, [sp, #-8]!
 8000d18:	f7ff ffea 	bl	8000cf0 <__aeabi_cfcmpeq>
 8000d1c:	bf34      	ite	cc
 8000d1e:	2001      	movcc	r0, #1
 8000d20:	2000      	movcs	r0, #0
 8000d22:	f85d fb08 	ldr.w	pc, [sp], #8
 8000d26:	bf00      	nop

08000d28 <__aeabi_fcmple>:
 8000d28:	f84d ed08 	str.w	lr, [sp, #-8]!
 8000d2c:	f7ff ffe0 	bl	8000cf0 <__aeabi_cfcmpeq>
 8000d30:	bf94      	ite	ls
 8000d32:	2001      	movls	r0, #1
 8000d34:	2000      	movhi	r0, #0
 8000d36:	f85d fb08 	ldr.w	pc, [sp], #8
 8000d3a:	bf00      	nop

08000d3c <__aeabi_fcmpge>:
 8000d3c:	f84d ed08 	str.w	lr, [sp, #-8]!
 8000d40:	f7ff ffd2 	bl	8000ce8 <__aeabi_cfrcmple>
 8000d44:	bf94      	ite	ls
 8000d46:	2001      	movls	r0, #1
 8000d48:	2000      	movhi	r0, #0
 8000d4a:	f85d fb08 	ldr.w	pc, [sp], #8
 8000d4e:	bf00      	nop

08000d50 <__aeabi_fcmpgt>:
 8000d50:	f84d ed08 	str.w	lr, [sp, #-8]!
 8000d54:	f7ff ffc8 	bl	8000ce8 <__aeabi_cfrcmple>
 8000d58:	bf34      	ite	cc
 8000d5a:	2001      	movcc	r0, #1
 8000d5c:	2000      	movcs	r0, #0
 8000d5e:	f85d fb08 	ldr.w	pc, [sp], #8
 8000d62:	bf00      	nop

08000d64 <__aeabi_f2uiz>:
 8000d64:	0042      	lsls	r2, r0, #1
 8000d66:	d20e      	bcs.n	8000d86 <__aeabi_f2uiz+0x22>
 8000d68:	f1b2 4ffe 	cmp.w	r2, #2130706432	; 0x7f000000
 8000d6c:	d30b      	bcc.n	8000d86 <__aeabi_f2uiz+0x22>
 8000d6e:	f04f 039e 	mov.w	r3, #158	; 0x9e
 8000d72:	ebb3 6212 	subs.w	r2, r3, r2, lsr #24
 8000d76:	d409      	bmi.n	8000d8c <__aeabi_f2uiz+0x28>
 8000d78:	ea4f 2300 	mov.w	r3, r0, lsl #8
 8000d7c:	f043 4300 	orr.w	r3, r3, #2147483648	; 0x80000000
 8000d80:	fa23 f002 	lsr.w	r0, r3, r2
 8000d84:	4770      	bx	lr
 8000d86:	f04f 0000 	mov.w	r0, #0
 8000d8a:	4770      	bx	lr
 8000d8c:	f112 0f61 	cmn.w	r2, #97	; 0x61
 8000d90:	d101      	bne.n	8000d96 <__aeabi_f2uiz+0x32>
 8000d92:	0242      	lsls	r2, r0, #9
 8000d94:	d102      	bne.n	8000d9c <__aeabi_f2uiz+0x38>
 8000d96:	f04f 30ff 	mov.w	r0, #4294967295
 8000d9a:	4770      	bx	lr
 8000d9c:	f04f 0000 	mov.w	r0, #0
 8000da0:	4770      	bx	lr
 8000da2:	bf00      	nop

08000da4 <DEC2BCD>:
 8000da4:	220a      	movs	r2, #10
 8000da6:	fbb0 f3f2 	udiv	r3, r0, r2
 8000daa:	fb02 0013 	mls	r0, r2, r3, r0
 8000dae:	ea40 1003 	orr.w	r0, r0, r3, lsl #4
 8000db2:	b2c0      	uxtb	r0, r0
 8000db4:	4770      	bx	lr

08000db6 <BCD2DEC>:
 8000db6:	0903      	lsrs	r3, r0, #4
 8000db8:	eb03 0383 	add.w	r3, r3, r3, lsl #2
 8000dbc:	f000 000f 	and.w	r0, r0, #15
 8000dc0:	eb00 0043 	add.w	r0, r0, r3, lsl #1
 8000dc4:	b2c0      	uxtb	r0, r0
 8000dc6:	4770      	bx	lr

08000dc8 <write_data_set>:
 8000dc8:	2201      	movs	r2, #1
 8000dca:	2180      	movs	r1, #128	; 0x80
 8000dcc:	4801      	ldr	r0, [pc, #4]	; (8000dd4 <write_data_set+0xc>)
 8000dce:	f001 ba2d 	b.w	800222c <HAL_GPIO_WritePin>
 8000dd2:	bf00      	nop
 8000dd4:	40010800 	.word	0x40010800

08000dd8 <write_data_reset>:
 8000dd8:	2200      	movs	r2, #0
 8000dda:	2180      	movs	r1, #128	; 0x80
 8000ddc:	4801      	ldr	r0, [pc, #4]	; (8000de4 <write_data_reset+0xc>)
 8000dde:	f001 ba25 	b.w	800222c <HAL_GPIO_WritePin>
 8000de2:	bf00      	nop
 8000de4:	40010800 	.word	0x40010800

08000de8 <dat_pin_write_mode>:
 8000de8:	b51f      	push	{r0, r1, r2, r3, r4, lr}
 8000dea:	2280      	movs	r2, #128	; 0x80
 8000dec:	2301      	movs	r3, #1
 8000dee:	e9cd 2300 	strd	r2, r3, [sp]
 8000df2:	2302      	movs	r3, #2
 8000df4:	4669      	mov	r1, sp
 8000df6:	4804      	ldr	r0, [pc, #16]	; (8000e08 <dat_pin_write_mode+0x20>)
 8000df8:	9303      	str	r3, [sp, #12]
 8000dfa:	f001 f937 	bl	800206c <HAL_GPIO_Init>
 8000dfe:	f7ff ffeb 	bl	8000dd8 <write_data_reset>
 8000e02:	b005      	add	sp, #20
 8000e04:	f85d fb04 	ldr.w	pc, [sp], #4
 8000e08:	40010800 	.word	0x40010800

08000e0c <dat_pin_read_mode>:
 8000e0c:	b51f      	push	{r0, r1, r2, r3, r4, lr}
 8000e0e:	2280      	movs	r2, #128	; 0x80
 8000e10:	2300      	movs	r3, #0
 8000e12:	e9cd 2300 	strd	r2, r3, [sp]
 8000e16:	2302      	movs	r3, #2
 8000e18:	4669      	mov	r1, sp
 8000e1a:	4805      	ldr	r0, [pc, #20]	; (8000e30 <dat_pin_read_mode+0x24>)
 8000e1c:	e9cd 3302 	strd	r3, r3, [sp, #8]
 8000e20:	f001 f924 	bl	800206c <HAL_GPIO_Init>
 8000e24:	f7ff ffd8 	bl	8000dd8 <write_data_reset>
 8000e28:	b005      	add	sp, #20
 8000e2a:	f85d fb04 	ldr.w	pc, [sp], #4
 8000e2e:	bf00      	nop
 8000e30:	40010800 	.word	0x40010800

08000e34 <read_data_pin>:
 8000e34:	2180      	movs	r1, #128	; 0x80
 8000e36:	b508      	push	{r3, lr}
 8000e38:	4803      	ldr	r0, [pc, #12]	; (8000e48 <read_data_pin+0x14>)
 8000e3a:	f001 f9f1 	bl	8002220 <HAL_GPIO_ReadPin>
 8000e3e:	3800      	subs	r0, #0
 8000e40:	bf18      	it	ne
 8000e42:	2001      	movne	r0, #1
 8000e44:	bd08      	pop	{r3, pc}
 8000e46:	bf00      	nop
 8000e48:	40010800 	.word	0x40010800

08000e4c <write_clk_set>:
 8000e4c:	2201      	movs	r2, #1
 8000e4e:	2120      	movs	r1, #32
 8000e50:	4801      	ldr	r0, [pc, #4]	; (8000e58 <write_clk_set+0xc>)
 8000e52:	f001 b9eb 	b.w	800222c <HAL_GPIO_WritePin>
 8000e56:	bf00      	nop
 8000e58:	40010800 	.word	0x40010800

08000e5c <write_clk_reset>:
 8000e5c:	2200      	movs	r2, #0
 8000e5e:	2120      	movs	r1, #32
 8000e60:	4801      	ldr	r0, [pc, #4]	; (8000e68 <write_clk_reset+0xc>)
 8000e62:	f001 b9e3 	b.w	800222c <HAL_GPIO_WritePin>
 8000e66:	bf00      	nop
 8000e68:	40010800 	.word	0x40010800

08000e6c <write_rst_set>:
 8000e6c:	2201      	movs	r2, #1
 8000e6e:	2140      	movs	r1, #64	; 0x40
 8000e70:	4801      	ldr	r0, [pc, #4]	; (8000e78 <write_rst_set+0xc>)
 8000e72:	f001 b9db 	b.w	800222c <HAL_GPIO_WritePin>
 8000e76:	bf00      	nop
 8000e78:	40010800 	.word	0x40010800

08000e7c <write_rst_reset>:
 8000e7c:	2200      	movs	r2, #0
 8000e7e:	2140      	movs	r1, #64	; 0x40
 8000e80:	4801      	ldr	r0, [pc, #4]	; (8000e88 <write_rst_reset+0xc>)
 8000e82:	f001 b9d3 	b.w	800222c <HAL_GPIO_WritePin>
 8000e86:	bf00      	nop
 8000e88:	40010800 	.word	0x40010800

08000e8c <ds1302_pin_init>:
 8000e8c:	b51f      	push	{r0, r1, r2, r3, r4, lr}
 8000e8e:	2300      	movs	r3, #0
 8000e90:	9302      	str	r3, [sp, #8]
 8000e92:	2301      	movs	r3, #1
 8000e94:	9301      	str	r3, [sp, #4]
 8000e96:	2302      	movs	r3, #2
 8000e98:	9100      	str	r1, [sp, #0]
 8000e9a:	4669      	mov	r1, sp
 8000e9c:	9303      	str	r3, [sp, #12]
 8000e9e:	f001 f8e5 	bl	800206c <HAL_GPIO_Init>
 8000ea2:	b005      	add	sp, #20
 8000ea4:	f85d fb04 	ldr.w	pc, [sp], #4

08000ea8 <DS1302_Init>:
 8000ea8:	b510      	push	{r4, lr}
 8000eaa:	4c0a      	ldr	r4, [pc, #40]	; (8000ed4 <DS1302_Init+0x2c>)
 8000eac:	2120      	movs	r1, #32
 8000eae:	4620      	mov	r0, r4
 8000eb0:	f7ff ffec 	bl	8000e8c <ds1302_pin_init>
 8000eb4:	4620      	mov	r0, r4
 8000eb6:	2180      	movs	r1, #128	; 0x80
 8000eb8:	f7ff ffe8 	bl	8000e8c <ds1302_pin_init>
 8000ebc:	4620      	mov	r0, r4
 8000ebe:	2140      	movs	r1, #64	; 0x40
 8000ec0:	f7ff ffe4 	bl	8000e8c <ds1302_pin_init>
 8000ec4:	f7ff ffca 	bl	8000e5c <write_clk_reset>
 8000ec8:	f7ff ff86 	bl	8000dd8 <write_data_reset>
 8000ecc:	e8bd 4010 	ldmia.w	sp!, {r4, lr}
 8000ed0:	f7ff bfd4 	b.w	8000e7c <write_rst_reset>
 8000ed4:	40010800 	.word	0x40010800

08000ed8 <ds1302_byte_write>:
 8000ed8:	b570      	push	{r4, r5, r6, lr}
 8000eda:	4606      	mov	r6, r0
 8000edc:	2508      	movs	r5, #8
 8000ede:	2401      	movs	r4, #1
 8000ee0:	4226      	tst	r6, r4
 8000ee2:	d00d      	beq.n	8000f00 <ds1302_byte_write+0x28>
 8000ee4:	f7ff ff70 	bl	8000dc8 <write_data_set>
 8000ee8:	f7ff ffb0 	bl	8000e4c <write_clk_set>
 8000eec:	0064      	lsls	r4, r4, #1
 8000eee:	f7ff ffb5 	bl	8000e5c <write_clk_reset>
 8000ef2:	3d01      	subs	r5, #1
 8000ef4:	b2e4      	uxtb	r4, r4
 8000ef6:	d1f3      	bne.n	8000ee0 <ds1302_byte_write+0x8>
 8000ef8:	e8bd 4070 	ldmia.w	sp!, {r4, r5, r6, lr}
 8000efc:	f7ff bf64 	b.w	8000dc8 <write_data_set>
 8000f00:	f7ff ff6a 	bl	8000dd8 <write_data_reset>
 8000f04:	e7f0      	b.n	8000ee8 <ds1302_byte_write+0x10>

08000f06 <ds1302_byte_read>:
 8000f06:	b570      	push	{r4, r5, r6, lr}
 8000f08:	2608      	movs	r6, #8
 8000f0a:	2401      	movs	r4, #1
 8000f0c:	2500      	movs	r5, #0
 8000f0e:	f7ff ff91 	bl	8000e34 <read_data_pin>
 8000f12:	b100      	cbz	r0, 8000f16 <ds1302_byte_read+0x10>
 8000f14:	4325      	orrs	r5, r4
 8000f16:	f7ff ff99 	bl	8000e4c <write_clk_set>
 8000f1a:	0064      	lsls	r4, r4, #1
 8000f1c:	f7ff ff9e 	bl	8000e5c <write_clk_reset>
 8000f20:	3e01      	subs	r6, #1
 8000f22:	b2e4      	uxtb	r4, r4
 8000f24:	d1f3      	bne.n	8000f0e <ds1302_byte_read+0x8>
 8000f26:	4628      	mov	r0, r5
 8000f28:	bd70      	pop	{r4, r5, r6, pc}

08000f2a <ds1302_single_write>:
 8000f2a:	b538      	push	{r3, r4, r5, lr}
 8000f2c:	4605      	mov	r5, r0
 8000f2e:	460c      	mov	r4, r1
 8000f30:	f7ff ffa4 	bl	8000e7c <write_rst_reset>
 8000f34:	f7ff ff92 	bl	8000e5c <write_clk_reset>
 8000f38:	f7ff ff98 	bl	8000e6c <write_rst_set>
 8000f3c:	f7ff ff54 	bl	8000de8 <dat_pin_write_mode>
 8000f40:	4628      	mov	r0, r5
 8000f42:	f7ff ffc9 	bl	8000ed8 <ds1302_byte_write>
 8000f46:	4620      	mov	r0, r4
 8000f48:	f7ff ffc6 	bl	8000ed8 <ds1302_byte_write>
 8000f4c:	e8bd 4038 	ldmia.w	sp!, {r3, r4, r5, lr}
 8000f50:	f7ff bf94 	b.w	8000e7c <write_rst_reset>

08000f54 <ds1302_single_read>:
 8000f54:	b510      	push	{r4, lr}
 8000f56:	4604      	mov	r4, r0
 8000f58:	f7ff ff90 	bl	8000e7c <write_rst_reset>
 8000f5c:	f7ff ff7e 	bl	8000e5c <write_clk_reset>
 8000f60:	f7ff ff84 	bl	8000e6c <write_rst_set>
 8000f64:	f7ff ff40 	bl	8000de8 <dat_pin_write_mode>
 8000f68:	f044 0001 	orr.w	r0, r4, #1
 8000f6c:	f7ff ffb4 	bl	8000ed8 <ds1302_byte_write>
 8000f70:	f7ff ff4c 	bl	8000e0c <dat_pin_read_mode>
 8000f74:	f7ff ffc7 	bl	8000f06 <ds1302_byte_read>
 8000f78:	4604      	mov	r4, r0
 8000f7a:	f7ff ff7f 	bl	8000e7c <write_rst_reset>
 8000f7e:	4620      	mov	r0, r4
 8000f80:	bd10      	pop	{r4, pc}

08000f82 <convert_time_struct>:
 8000f82:	b538      	push	{r3, r4, r5, lr}
 8000f84:	7a4b      	ldrb	r3, [r1, #9]
 8000f86:	794d      	ldrb	r5, [r1, #5]
 8000f88:	2b3b      	cmp	r3, #59	; 0x3b
 8000f8a:	bf84      	itt	hi
 8000f8c:	2300      	movhi	r3, #0
 8000f8e:	724b      	strbhi	r3, [r1, #9]
 8000f90:	7a0b      	ldrb	r3, [r1, #8]
 8000f92:	4604      	mov	r4, r0
 8000f94:	2b3b      	cmp	r3, #59	; 0x3b
 8000f96:	bf84      	itt	hi
 8000f98:	2300      	movhi	r3, #0
 8000f9a:	720b      	strbhi	r3, [r1, #8]
 8000f9c:	79cb      	ldrb	r3, [r1, #7]
 8000f9e:	b365      	cbz	r5, 8000ffa <convert_time_struct+0x78>
 8000fa0:	2b17      	cmp	r3, #23
 8000fa2:	d901      	bls.n	8000fa8 <convert_time_struct+0x26>
 8000fa4:	2300      	movs	r3, #0
 8000fa6:	71cb      	strb	r3, [r1, #7]
 8000fa8:	78cb      	ldrb	r3, [r1, #3]
 8000faa:	79c8      	ldrb	r0, [r1, #7]
 8000fac:	3b01      	subs	r3, #1
 8000fae:	2b1e      	cmp	r3, #30
 8000fb0:	bf84      	itt	hi
 8000fb2:	2301      	movhi	r3, #1
 8000fb4:	70cb      	strbhi	r3, [r1, #3]
 8000fb6:	790b      	ldrb	r3, [r1, #4]
 8000fb8:	3b01      	subs	r3, #1
 8000fba:	2b06      	cmp	r3, #6
 8000fbc:	bf84      	itt	hi
 8000fbe:	2301      	movhi	r3, #1
 8000fc0:	710b      	strbhi	r3, [r1, #4]
 8000fc2:	788b      	ldrb	r3, [r1, #2]
 8000fc4:	3b01      	subs	r3, #1
 8000fc6:	2b0b      	cmp	r3, #11
 8000fc8:	bf84      	itt	hi
 8000fca:	2301      	movhi	r3, #1
 8000fcc:	708b      	strbhi	r3, [r1, #2]
 8000fce:	880b      	ldrh	r3, [r1, #0]
 8000fd0:	f5a3 63fa 	sub.w	r3, r3, #2000	; 0x7d0
 8000fd4:	b29b      	uxth	r3, r3
 8000fd6:	2b64      	cmp	r3, #100	; 0x64
 8000fd8:	bf28      	it	cs
 8000fda:	2300      	movcs	r3, #0
 8000fdc:	800b      	strh	r3, [r1, #0]
 8000fde:	f7ff fee1 	bl	8000da4 <DEC2BCD>
 8000fe2:	b17d      	cbz	r5, 8001004 <convert_time_struct+0x82>
 8000fe4:	f000 033f 	and.w	r3, r0, #63	; 0x3f
 8000fe8:	71cb      	strb	r3, [r1, #7]
 8000fea:	680b      	ldr	r3, [r1, #0]
 8000fec:	4620      	mov	r0, r4
 8000fee:	6023      	str	r3, [r4, #0]
 8000ff0:	684b      	ldr	r3, [r1, #4]
 8000ff2:	6063      	str	r3, [r4, #4]
 8000ff4:	890b      	ldrh	r3, [r1, #8]
 8000ff6:	8123      	strh	r3, [r4, #8]
 8000ff8:	bd38      	pop	{r3, r4, r5, pc}
 8000ffa:	3b01      	subs	r3, #1
 8000ffc:	2b0b      	cmp	r3, #11
 8000ffe:	d9d3      	bls.n	8000fa8 <convert_time_struct+0x26>
 8001000:	2301      	movs	r3, #1
 8001002:	e7d0      	b.n	8000fa6 <convert_time_struct+0x24>
 8001004:	798b      	ldrb	r3, [r1, #6]
 8001006:	2b00      	cmp	r3, #0
 8001008:	bf14      	ite	ne
 800100a:	2280      	movne	r2, #128	; 0x80
 800100c:	22a0      	moveq	r2, #160	; 0xa0
 800100e:	f000 031f 	and.w	r3, r0, #31
 8001012:	4313      	orrs	r3, r2
 8001014:	e7e8      	b.n	8000fe8 <convert_time_struct+0x66>

08001016 <DS1302_RamSave>:
 8001016:	b538      	push	{r3, r4, r5, lr}
 8001018:	4604      	mov	r4, r0
 800101a:	460d      	mov	r5, r1
 800101c:	208e      	movs	r0, #142	; 0x8e
 800101e:	2100      	movs	r1, #0
 8001020:	f7ff ff83 	bl	8000f2a <ds1302_single_write>
 8001024:	f1a4 0040 	sub.w	r0, r4, #64	; 0x40
 8001028:	4629      	mov	r1, r5
 800102a:	b2c0      	uxtb	r0, r0
 800102c:	f7ff ff7d 	bl	8000f2a <ds1302_single_write>
 8001030:	e8bd 4038 	ldmia.w	sp!, {r3, r4, r5, lr}
 8001034:	2180      	movs	r1, #128	; 0x80
 8001036:	208e      	movs	r0, #142	; 0x8e
 8001038:	f7ff bf77 	b.w	8000f2a <ds1302_single_write>

0800103c <DS1302_RamRead>:
 800103c:	3840      	subs	r0, #64	; 0x40
 800103e:	b2c0      	uxtb	r0, r0
 8001040:	f7ff bf88 	b.w	8000f54 <ds1302_single_read>

08001044 <DS1302_SetTime_Struct>:
 8001044:	b51f      	push	{r0, r1, r2, r3, r4, lr}
 8001046:	4601      	mov	r1, r0
 8001048:	a801      	add	r0, sp, #4
 800104a:	f7ff ff9a 	bl	8000f82 <convert_time_struct>
 800104e:	2100      	movs	r1, #0
 8001050:	208e      	movs	r0, #142	; 0x8e
 8001052:	f7ff ff6a 	bl	8000f2a <ds1302_single_write>
 8001056:	f89d 0004 	ldrb.w	r0, [sp, #4]
 800105a:	f7ff fea3 	bl	8000da4 <DEC2BCD>
 800105e:	4601      	mov	r1, r0
 8001060:	208c      	movs	r0, #140	; 0x8c
 8001062:	f7ff ff62 	bl	8000f2a <ds1302_single_write>
 8001066:	f89d 0006 	ldrb.w	r0, [sp, #6]
 800106a:	f7ff fe9b 	bl	8000da4 <DEC2BCD>
 800106e:	4601      	mov	r1, r0
 8001070:	2088      	movs	r0, #136	; 0x88
 8001072:	f7ff ff5a 	bl	8000f2a <ds1302_single_write>
 8001076:	f89d 0008 	ldrb.w	r0, [sp, #8]
 800107a:	f7ff fe93 	bl	8000da4 <DEC2BCD>
 800107e:	4601      	mov	r1, r0
 8001080:	208a      	movs	r0, #138	; 0x8a
 8001082:	f7ff ff52 	bl	8000f2a <ds1302_single_write>
 8001086:	f89d 0007 	ldrb.w	r0, [sp, #7]
 800108a:	f7ff fe8b 	bl	8000da4 <DEC2BCD>
 800108e:	4601      	mov	r1, r0
 8001090:	2086      	movs	r0, #134	; 0x86
 8001092:	f7ff ff4a 	bl	8000f2a <ds1302_single_write>
 8001096:	f89d 100b 	ldrb.w	r1, [sp, #11]
 800109a:	2084      	movs	r0, #132	; 0x84
 800109c:	f7ff ff45 	bl	8000f2a <ds1302_single_write>
 80010a0:	f89d 000c 	ldrb.w	r0, [sp, #12]
 80010a4:	f7ff fe7e 	bl	8000da4 <DEC2BCD>
 80010a8:	4601      	mov	r1, r0
 80010aa:	2082      	movs	r0, #130	; 0x82
 80010ac:	f7ff ff3d 	bl	8000f2a <ds1302_single_write>
 80010b0:	f89d 000d 	ldrb.w	r0, [sp, #13]
 80010b4:	f000 007f 	and.w	r0, r0, #127	; 0x7f
 80010b8:	f7ff fe74 	bl	8000da4 <DEC2BCD>
 80010bc:	4601      	mov	r1, r0
 80010be:	2080      	movs	r0, #128	; 0x80
 80010c0:	f7ff ff33 	bl	8000f2a <ds1302_single_write>
 80010c4:	2180      	movs	r1, #128	; 0x80
 80010c6:	208e      	movs	r0, #142	; 0x8e
 80010c8:	b005      	add	sp, #20
 80010ca:	f85d eb04 	ldr.w	lr, [sp], #4
 80010ce:	f7ff bf2c 	b.w	8000f2a <ds1302_single_write>

080010d2 <DS1302_ReadTime_Struct>:
 80010d2:	e92d 47f0 	stmdb	sp!, {r4, r5, r6, r7, r8, r9, sl, lr}
 80010d6:	4604      	mov	r4, r0
 80010d8:	208c      	movs	r0, #140	; 0x8c
 80010da:	f7ff ff3b 	bl	8000f54 <ds1302_single_read>
 80010de:	f7ff fe6a 	bl	8000db6 <BCD2DEC>
 80010e2:	f500 65fa 	add.w	r5, r0, #2000	; 0x7d0
 80010e6:	2088      	movs	r0, #136	; 0x88
 80010e8:	f7ff ff34 	bl	8000f54 <ds1302_single_read>
 80010ec:	f7ff fe63 	bl	8000db6 <BCD2DEC>
 80010f0:	4681      	mov	r9, r0
 80010f2:	208a      	movs	r0, #138	; 0x8a
 80010f4:	f7ff ff2e 	bl	8000f54 <ds1302_single_read>
 80010f8:	f7ff fe5d 	bl	8000db6 <BCD2DEC>
 80010fc:	4607      	mov	r7, r0
 80010fe:	2086      	movs	r0, #134	; 0x86
 8001100:	f7ff ff28 	bl	8000f54 <ds1302_single_read>
 8001104:	f7ff fe57 	bl	8000db6 <BCD2DEC>
 8001108:	4680      	mov	r8, r0
 800110a:	2084      	movs	r0, #132	; 0x84
 800110c:	f7ff ff22 	bl	8000f54 <ds1302_single_read>
 8001110:	4682      	mov	sl, r0
 8001112:	2082      	movs	r0, #130	; 0x82
 8001114:	f7ff ff1e 	bl	8000f54 <ds1302_single_read>
 8001118:	f7ff fe4d 	bl	8000db6 <BCD2DEC>
 800111c:	4606      	mov	r6, r0
 800111e:	2080      	movs	r0, #128	; 0x80
 8001120:	f7ff ff18 	bl	8000f54 <ds1302_single_read>
 8001124:	f000 007f 	and.w	r0, r0, #127	; 0x7f
 8001128:	f7ff fe45 	bl	8000db6 <BCD2DEC>
 800112c:	f01a 0f80 	tst.w	sl, #128	; 0x80
 8001130:	4602      	mov	r2, r0
 8001132:	b2ad      	uxth	r5, r5
 8001134:	d017      	beq.n	8001166 <DS1302_ReadTime_Struct+0x94>
 8001136:	f00a 001f 	and.w	r0, sl, #31
 800113a:	f7ff fe3c 	bl	8000db6 <BCD2DEC>
 800113e:	4603      	mov	r3, r0
 8001140:	2000      	movs	r0, #0
 8001142:	f08a 0120 	eor.w	r1, sl, #32
 8001146:	f3c1 1140 	ubfx	r1, r1, #5, #1
 800114a:	7160      	strb	r0, [r4, #5]
 800114c:	8025      	strh	r5, [r4, #0]
 800114e:	4620      	mov	r0, r4
 8001150:	f884 9002 	strb.w	r9, [r4, #2]
 8001154:	f884 8003 	strb.w	r8, [r4, #3]
 8001158:	7127      	strb	r7, [r4, #4]
 800115a:	71a1      	strb	r1, [r4, #6]
 800115c:	71e3      	strb	r3, [r4, #7]
 800115e:	7226      	strb	r6, [r4, #8]
 8001160:	7262      	strb	r2, [r4, #9]
 8001162:	e8bd 87f0 	ldmia.w	sp!, {r4, r5, r6, r7, r8, r9, sl, pc}
 8001166:	f00a 003f 	and.w	r0, sl, #63	; 0x3f
 800116a:	f7ff fe24 	bl	8000db6 <BCD2DEC>
 800116e:	2100      	movs	r1, #0
 8001170:	4603      	mov	r3, r0
 8001172:	2001      	movs	r0, #1
 8001174:	e7e9      	b.n	800114a <DS1302_ReadTime_Struct+0x78>
	...

08001178 <MCP4725_setReferenceVoltage>:
 8001178:	b538      	push	{r3, r4, r5, lr}
 800117a:	460c      	mov	r4, r1
 800117c:	4605      	mov	r5, r0
 800117e:	2100      	movs	r1, #0
 8001180:	4620      	mov	r0, r4
 8001182:	f7ff fdbd 	bl	8000d00 <__aeabi_fcmpeq>
 8001186:	b100      	cbz	r0, 800118a <MCP4725_setReferenceVoltage+0x12>
 8001188:	4c05      	ldr	r4, [pc, #20]	; (80011a0 <MCP4725_setReferenceVoltage+0x28>)
 800118a:	4621      	mov	r1, r4
 800118c:	f04f 408b 	mov.w	r0, #1166016512	; 0x45800000
 8001190:	60ac      	str	r4, [r5, #8]
 8001192:	f7ff fcd5 	bl	8000b40 <__aeabi_fdiv>
 8001196:	f7ff fde5 	bl	8000d64 <__aeabi_f2uiz>
 800119a:	81a8      	strh	r0, [r5, #12]
 800119c:	bd38      	pop	{r3, r4, r5, pc}
 800119e:	bf00      	nop
 80011a0:	40533333 	.word	0x40533333

080011a4 <MCP4725_init>:
 80011a4:	b530      	push	{r4, r5, lr}
 80011a6:	b085      	sub	sp, #20
 80011a8:	466d      	mov	r5, sp
 80011aa:	4604      	mov	r4, r0
 80011ac:	0052      	lsls	r2, r2, #1
 80011ae:	4628      	mov	r0, r5
 80011b0:	9100      	str	r1, [sp, #0]
 80011b2:	4619      	mov	r1, r3
 80011b4:	f88d 2004 	strb.w	r2, [sp, #4]
 80011b8:	f7ff ffde 	bl	8001178 <MCP4725_setReferenceVoltage>
 80011bc:	e895 000f 	ldmia.w	r5, {r0, r1, r2, r3}
 80011c0:	e884 000f 	stmia.w	r4, {r0, r1, r2, r3}
 80011c4:	4620      	mov	r0, r4
 80011c6:	b005      	add	sp, #20
 80011c8:	bd30      	pop	{r4, r5, pc}

080011ca <MCP4725_readRegister>:
 80011ca:	b5b0      	push	{r4, r5, r7, lr}
 80011cc:	1dcb      	adds	r3, r1, #7
 80011ce:	b082      	sub	sp, #8
 80011d0:	f403 73fc 	and.w	r3, r3, #504	; 0x1f8
 80011d4:	af02      	add	r7, sp, #8
 80011d6:	ebad 0d03 	sub.w	sp, sp, r3
 80011da:	466c      	mov	r4, sp
 80011dc:	f44f 737a 	mov.w	r3, #1000	; 0x3e8
 80011e0:	f844 3b08 	str.w	r3, [r4], #8
 80011e4:	460d      	mov	r5, r1
 80011e6:	460b      	mov	r3, r1
 80011e8:	4622      	mov	r2, r4
 80011ea:	7901      	ldrb	r1, [r0, #4]
 80011ec:	6800      	ldr	r0, [r0, #0]
 80011ee:	f001 faa3 	bl	8002738 <HAL_I2C_Master_Receive>
 80011f2:	b980      	cbnz	r0, 8001216 <MCP4725_readRegister+0x4c>
 80011f4:	2d03      	cmp	r5, #3
 80011f6:	d006      	beq.n	8001206 <MCP4725_readRegister+0x3c>
 80011f8:	2d05      	cmp	r5, #5
 80011fa:	d004      	beq.n	8001206 <MCP4725_readRegister+0x3c>
 80011fc:	2d01      	cmp	r5, #1
 80011fe:	d100      	bne.n	8001202 <MCP4725_readRegister+0x38>
 8001200:	7820      	ldrb	r0, [r4, #0]
 8001202:	46bd      	mov	sp, r7
 8001204:	bdb0      	pop	{r4, r5, r7, pc}
 8001206:	442c      	add	r4, r5
 8001208:	f814 3c02 	ldrb.w	r3, [r4, #-2]
 800120c:	f814 0c01 	ldrb.w	r0, [r4, #-1]
 8001210:	ea40 2003 	orr.w	r0, r0, r3, lsl #8
 8001214:	e7f5      	b.n	8001202 <MCP4725_readRegister+0x38>
 8001216:	f64f 70ff 	movw	r0, #65535	; 0xffff
 800121a:	e7f2      	b.n	8001202 <MCP4725_readRegister+0x38>

0800121c <MCP4725_getEepromBusyFlag>:
 800121c:	b508      	push	{r3, lr}
 800121e:	2101      	movs	r1, #1
 8001220:	f7ff ffd3 	bl	80011ca <MCP4725_readRegister>
 8001224:	f64f 73ff 	movw	r3, #65535	; 0xffff
 8001228:	4298      	cmp	r0, r3
 800122a:	bf0c      	ite	eq
 800122c:	2000      	moveq	r0, #0
 800122e:	f3c0 10c0 	ubfxne	r0, r0, #7, #1
 8001232:	bd08      	pop	{r3, pc}

08001234 <MCP4725_writeComand>:
 8001234:	b530      	push	{r4, r5, lr}
 8001236:	4614      	mov	r4, r2
 8001238:	f002 02df 	and.w	r2, r2, #223	; 0xdf
 800123c:	2a40      	cmp	r2, #64	; 0x40
 800123e:	4605      	mov	r5, r0
 8001240:	b085      	sub	sp, #20
 8001242:	d014      	beq.n	800126e <MCP4725_writeComand+0x3a>
 8001244:	bb44      	cbnz	r4, 8001298 <MCP4725_writeComand+0x64>
 8001246:	0a0a      	lsrs	r2, r1, #8
 8001248:	ea42 1303 	orr.w	r3, r2, r3, lsl #4
 800124c:	f88d 300c 	strb.w	r3, [sp, #12]
 8001250:	f44f 737a 	mov.w	r3, #1000	; 0x3e8
 8001254:	9300      	str	r3, [sp, #0]
 8001256:	f88d 100d 	strb.w	r1, [sp, #13]
 800125a:	2302      	movs	r3, #2
 800125c:	7901      	ldrb	r1, [r0, #4]
 800125e:	aa03      	add	r2, sp, #12
 8001260:	6800      	ldr	r0, [r0, #0]
 8001262:	f001 f991 	bl	8002588 <HAL_I2C_Master_Transmit>
 8001266:	b1c8      	cbz	r0, 800129c <MCP4725_writeComand+0x68>
 8001268:	4620      	mov	r0, r4
 800126a:	b005      	add	sp, #20
 800126c:	bd30      	pop	{r4, r5, pc}
 800126e:	ea44 0343 	orr.w	r3, r4, r3, lsl #1
 8001272:	f88d 300c 	strb.w	r3, [sp, #12]
 8001276:	f44f 737a 	mov.w	r3, #1000	; 0x3e8
 800127a:	010a      	lsls	r2, r1, #4
 800127c:	9300      	str	r3, [sp, #0]
 800127e:	f3c1 1107 	ubfx	r1, r1, #4, #8
 8001282:	f88d 100d 	strb.w	r1, [sp, #13]
 8001286:	f88d 200e 	strb.w	r2, [sp, #14]
 800128a:	7901      	ldrb	r1, [r0, #4]
 800128c:	2303      	movs	r3, #3
 800128e:	6800      	ldr	r0, [r0, #0]
 8001290:	aa03      	add	r2, sp, #12
 8001292:	f001 f979 	bl	8002588 <HAL_I2C_Master_Transmit>
 8001296:	b9a0      	cbnz	r0, 80012c2 <MCP4725_writeComand+0x8e>
 8001298:	2c60      	cmp	r4, #96	; 0x60
 800129a:	d001      	beq.n	80012a0 <MCP4725_writeComand+0x6c>
 800129c:	2401      	movs	r4, #1
 800129e:	e7e3      	b.n	8001268 <MCP4725_writeComand+0x34>
 80012a0:	4628      	mov	r0, r5
 80012a2:	f7ff ffbb 	bl	800121c <MCP4725_getEepromBusyFlag>
 80012a6:	2801      	cmp	r0, #1
 80012a8:	d0f8      	beq.n	800129c <MCP4725_writeComand+0x68>
 80012aa:	2019      	movs	r0, #25
 80012ac:	f000 fe7a 	bl	8001fa4 <HAL_Delay>
 80012b0:	4628      	mov	r0, r5
 80012b2:	f7ff ffb3 	bl	800121c <MCP4725_getEepromBusyFlag>
 80012b6:	2801      	cmp	r0, #1
 80012b8:	d0f0      	beq.n	800129c <MCP4725_writeComand+0x68>
 80012ba:	2019      	movs	r0, #25
 80012bc:	f000 fe72 	bl	8001fa4 <HAL_Delay>
 80012c0:	e7ec      	b.n	800129c <MCP4725_writeComand+0x68>
 80012c2:	2400      	movs	r4, #0
 80012c4:	e7d0      	b.n	8001268 <MCP4725_writeComand+0x34>

080012c6 <MCP4725_setVoltage>:
 80012c6:	e92d 41f0 	stmdb	sp!, {r4, r5, r6, r7, r8, lr}
 80012ca:	460f      	mov	r7, r1
 80012cc:	4604      	mov	r4, r0
 80012ce:	8980      	ldrh	r0, [r0, #12]
 80012d0:	4615      	mov	r5, r2
 80012d2:	461e      	mov	r6, r3
 80012d4:	f7ff fb2c 	bl	8000930 <__aeabi_i2f>
 80012d8:	4639      	mov	r1, r7
 80012da:	f7ff fb7d 	bl	80009d8 <__aeabi_fmul>
 80012de:	f7ff fd41 	bl	8000d64 <__aeabi_f2uiz>
 80012e2:	4633      	mov	r3, r6
 80012e4:	462a      	mov	r2, r5
 80012e6:	b281      	uxth	r1, r0
 80012e8:	4620      	mov	r0, r4
 80012ea:	e8bd 41f0 	ldmia.w	sp!, {r4, r5, r6, r7, r8, lr}
 80012ee:	f7ff bfa1 	b.w	8001234 <MCP4725_writeComand>
	...

080012f4 <StartDefaultTask>:
 80012f4:	b508      	push	{r3, lr}
 80012f6:	4c04      	ldr	r4, [pc, #16]	; (8001308 <StartDefaultTask+0x14>)
 80012f8:	4620      	mov	r0, r4
 80012fa:	f001 fbe8 	bl	8002ace <HAL_IWDG_Refresh>
 80012fe:	2005      	movs	r0, #5
 8001300:	f002 f8d0 	bl	80034a4 <osDelay>
 8001304:	e7f8      	b.n	80012f8 <StartDefaultTask+0x4>
 8001306:	bf00      	nop
 8001308:	20000ee8 	.word	0x20000ee8

0800130c <BtnTask>:
 800130c:	e92d 43f7 	stmdb	sp!, {r0, r1, r2, r4, r5, r6, r7, r8, r9, lr}
 8001310:	2400      	movs	r4, #0
 8001312:	4625      	mov	r5, r4
 8001314:	4627      	mov	r7, r4
 8001316:	4626      	mov	r6, r4
 8001318:	f8df 8094 	ldr.w	r8, [pc, #148]	; 80013b0 <BtnTask+0xa4>
 800131c:	f8df 9094 	ldr.w	r9, [pc, #148]	; 80013b4 <BtnTask+0xa8>
 8001320:	f88d 4004 	strb.w	r4, [sp, #4]
 8001324:	f88d 4005 	strb.w	r4, [sp, #5]
 8001328:	f44f 4180 	mov.w	r1, #16384	; 0x4000
 800132c:	4640      	mov	r0, r8
 800132e:	f000 ff77 	bl	8002220 <HAL_GPIO_ReadPin>
 8001332:	b1a8      	cbz	r0, 8001360 <BtnTask+0x54>
 8001334:	b924      	cbnz	r4, 8001340 <BtnTask+0x34>
 8001336:	3601      	adds	r6, #1
 8001338:	2e32      	cmp	r6, #50	; 0x32
 800133a:	bfd4      	ite	le
 800133c:	2400      	movle	r4, #0
 800133e:	2401      	movgt	r4, #1
 8001340:	f44f 4100 	mov.w	r1, #32768	; 0x8000
 8001344:	4640      	mov	r0, r8
 8001346:	f000 ff6b 	bl	8002220 <HAL_GPIO_ReadPin>
 800134a:	b1e8      	cbz	r0, 8001388 <BtnTask+0x7c>
 800134c:	b925      	cbnz	r5, 8001358 <BtnTask+0x4c>
 800134e:	3701      	adds	r7, #1
 8001350:	2f32      	cmp	r7, #50	; 0x32
 8001352:	bfd4      	ite	le
 8001354:	2500      	movle	r5, #0
 8001356:	2501      	movgt	r5, #1
 8001358:	2001      	movs	r0, #1
 800135a:	f002 f8a3 	bl	80034a4 <osDelay>
 800135e:	e7e3      	b.n	8001328 <BtnTask+0x1c>
 8001360:	b986      	cbnz	r6, 8001384 <BtnTask+0x78>
 8001362:	b90c      	cbnz	r4, 8001368 <BtnTask+0x5c>
 8001364:	2400      	movs	r4, #0
 8001366:	e7eb      	b.n	8001340 <BtnTask+0x34>
 8001368:	4633      	mov	r3, r6
 800136a:	4632      	mov	r2, r6
 800136c:	f8d9 0000 	ldr.w	r0, [r9]
 8001370:	a901      	add	r1, sp, #4
 8001372:	f88d 4004 	strb.w	r4, [sp, #4]
 8001376:	f002 fb2b 	bl	80039d0 <osMessageQueuePut>
 800137a:	2800      	cmp	r0, #0
 800137c:	d1f2      	bne.n	8001364 <BtnTask+0x58>
 800137e:	f88d 6004 	strb.w	r6, [sp, #4]
 8001382:	e7ef      	b.n	8001364 <BtnTask+0x58>
 8001384:	3e01      	subs	r6, #1
 8001386:	e7db      	b.n	8001340 <BtnTask+0x34>
 8001388:	b987      	cbnz	r7, 80013ac <BtnTask+0xa0>
 800138a:	b90d      	cbnz	r5, 8001390 <BtnTask+0x84>
 800138c:	2500      	movs	r5, #0
 800138e:	e7e3      	b.n	8001358 <BtnTask+0x4c>
 8001390:	463b      	mov	r3, r7
 8001392:	463a      	mov	r2, r7
 8001394:	f8d9 0000 	ldr.w	r0, [r9]
 8001398:	a901      	add	r1, sp, #4
 800139a:	f88d 5005 	strb.w	r5, [sp, #5]
 800139e:	f002 fb17 	bl	80039d0 <osMessageQueuePut>
 80013a2:	2800      	cmp	r0, #0
 80013a4:	d1f2      	bne.n	800138c <BtnTask+0x80>
 80013a6:	f88d 7005 	strb.w	r7, [sp, #5]
 80013aa:	e7ef      	b.n	800138c <BtnTask+0x80>
 80013ac:	3f01      	subs	r7, #1
 80013ae:	e7d3      	b.n	8001358 <BtnTask+0x4c>
 80013b0:	40010c00 	.word	0x40010c00
 80013b4:	20000354 	.word	0x20000354

080013b8 <time_hours_to_voltage>:
 80013b8:	b5f8      	push	{r3, r4, r5, r6, r7, lr}
 80013ba:	78c3      	ldrb	r3, [r0, #3]
 80013bc:	4605      	mov	r5, r0
 80013be:	4c20      	ldr	r4, [pc, #128]	; (8001440 <time_hours_to_voltage+0x88>)
 80013c0:	2b00      	cmp	r3, #0
 80013c2:	d033      	beq.n	800142c <time_hours_to_voltage+0x74>
 80013c4:	6820      	ldr	r0, [r4, #0]
 80013c6:	f7ff f951 	bl	800066c <__aeabi_f2d>
 80013ca:	a319      	add	r3, pc, #100	; (adr r3, 8001430 <time_hours_to_voltage+0x78>)
 80013cc:	e9d3 2300 	ldrd	r2, r3, [r3]
 80013d0:	f7fe ffee 	bl	80003b0 <__adddf3>
 80013d4:	f7ff f9a2 	bl	800071c <__aeabi_d2f>
 80013d8:	491a      	ldr	r1, [pc, #104]	; (8001444 <time_hours_to_voltage+0x8c>)
 80013da:	4606      	mov	r6, r0
 80013dc:	f7ff fcb8 	bl	8000d50 <__aeabi_fcmpgt>
 80013e0:	bb08      	cbnz	r0, 8001426 <time_hours_to_voltage+0x6e>
 80013e2:	6026      	str	r6, [r4, #0]
 80013e4:	782b      	ldrb	r3, [r5, #0]
 80013e6:	2b0d      	cmp	r3, #13
 80013e8:	bf34      	ite	cc
 80013ea:	2000      	movcc	r0, #0
 80013ec:	200c      	movcs	r0, #12
 80013ee:	1a18      	subs	r0, r3, r0
 80013f0:	f7ff fa9e 	bl	8000930 <__aeabi_i2f>
 80013f4:	4b14      	ldr	r3, [pc, #80]	; (8001448 <time_hours_to_voltage+0x90>)
 80013f6:	6819      	ldr	r1, [r3, #0]
 80013f8:	f7ff faee 	bl	80009d8 <__aeabi_fmul>
 80013fc:	f7ff f936 	bl	800066c <__aeabi_f2d>
 8001400:	a30d      	add	r3, pc, #52	; (adr r3, 8001438 <time_hours_to_voltage+0x80>)
 8001402:	e9d3 2300 	ldrd	r2, r3, [r3]
 8001406:	f7fe fea3 	bl	8000150 <__aeabi_dmul>
 800140a:	4606      	mov	r6, r0
 800140c:	6820      	ldr	r0, [r4, #0]
 800140e:	460f      	mov	r7, r1
 8001410:	f7ff f92c 	bl	800066c <__aeabi_f2d>
 8001414:	4602      	mov	r2, r0
 8001416:	460b      	mov	r3, r1
 8001418:	4630      	mov	r0, r6
 800141a:	4639      	mov	r1, r7
 800141c:	f7fe ffc8 	bl	80003b0 <__adddf3>
 8001420:	f7ff f97c 	bl	800071c <__aeabi_d2f>
 8001424:	bdf8      	pop	{r3, r4, r5, r6, r7, pc}
 8001426:	4b09      	ldr	r3, [pc, #36]	; (800144c <time_hours_to_voltage+0x94>)
 8001428:	6023      	str	r3, [r4, #0]
 800142a:	e7db      	b.n	80013e4 <time_hours_to_voltage+0x2c>
 800142c:	2300      	movs	r3, #0
 800142e:	e7fb      	b.n	8001428 <time_hours_to_voltage+0x70>
 8001430:	47ae147b 	.word	0x47ae147b
 8001434:	3f847ae1 	.word	0x3f847ae1
 8001438:	47ae147b 	.word	0x47ae147b
 800143c:	3ff07ae1 	.word	0x3ff07ae1
 8001440:	20000ef8 	.word	0x20000ef8
 8001444:	3da3d70a 	.word	0x3da3d70a
 8001448:	20000e80 	.word	0x20000e80
 800144c:	bda3d70a 	.word	0xbda3d70a

08001450 <time_mins_to_voltage>:
 8001450:	b570      	push	{r4, r5, r6, lr}
 8001452:	78c3      	ldrb	r3, [r0, #3]
 8001454:	4605      	mov	r5, r0
 8001456:	4c14      	ldr	r4, [pc, #80]	; (80014a8 <time_mins_to_voltage+0x58>)
 8001458:	b1eb      	cbz	r3, 8001496 <time_mins_to_voltage+0x46>
 800145a:	6820      	ldr	r0, [r4, #0]
 800145c:	f7ff f906 	bl	800066c <__aeabi_f2d>
 8001460:	a30f      	add	r3, pc, #60	; (adr r3, 80014a0 <time_mins_to_voltage+0x50>)
 8001462:	e9d3 2300 	ldrd	r2, r3, [r3]
 8001466:	f7fe ffa3 	bl	80003b0 <__adddf3>
 800146a:	f7ff f957 	bl	800071c <__aeabi_d2f>
 800146e:	490f      	ldr	r1, [pc, #60]	; (80014ac <time_mins_to_voltage+0x5c>)
 8001470:	4606      	mov	r6, r0
 8001472:	f7ff fc6d 	bl	8000d50 <__aeabi_fcmpgt>
 8001476:	b958      	cbnz	r0, 8001490 <time_mins_to_voltage+0x40>
 8001478:	6026      	str	r6, [r4, #0]
 800147a:	7868      	ldrb	r0, [r5, #1]
 800147c:	f7ff fa54 	bl	8000928 <__aeabi_ui2f>
 8001480:	4b0b      	ldr	r3, [pc, #44]	; (80014b0 <time_mins_to_voltage+0x60>)
 8001482:	6819      	ldr	r1, [r3, #0]
 8001484:	f7ff faa8 	bl	80009d8 <__aeabi_fmul>
 8001488:	6821      	ldr	r1, [r4, #0]
 800148a:	f7ff f99d 	bl	80007c8 <__addsf3>
 800148e:	bd70      	pop	{r4, r5, r6, pc}
 8001490:	4b08      	ldr	r3, [pc, #32]	; (80014b4 <time_mins_to_voltage+0x64>)
 8001492:	6023      	str	r3, [r4, #0]
 8001494:	e7f1      	b.n	800147a <time_mins_to_voltage+0x2a>
 8001496:	2300      	movs	r3, #0
 8001498:	e7fb      	b.n	8001492 <time_mins_to_voltage+0x42>
 800149a:	bf00      	nop
 800149c:	f3af 8000 	nop.w
 80014a0:	47ae147b 	.word	0x47ae147b
 80014a4:	3f847ae1 	.word	0x3f847ae1
 80014a8:	20000ef4 	.word	0x20000ef4
 80014ac:	3da3d70a 	.word	0x3da3d70a
 80014b0:	20000e8c 	.word	0x20000e8c
 80014b4:	bda3d70a 	.word	0xbda3d70a

080014b8 <time_hour_increment>:
 80014b8:	7803      	ldrb	r3, [r0, #0]
 80014ba:	3301      	adds	r3, #1
 80014bc:	b2db      	uxtb	r3, r3
 80014be:	2b0d      	cmp	r3, #13
 80014c0:	bf08      	it	eq
 80014c2:	2301      	moveq	r3, #1
 80014c4:	7003      	strb	r3, [r0, #0]
 80014c6:	4770      	bx	lr

080014c8 <time_min_increment>:
 80014c8:	7843      	ldrb	r3, [r0, #1]
 80014ca:	3301      	adds	r3, #1
 80014cc:	b2db      	uxtb	r3, r3
 80014ce:	2b3c      	cmp	r3, #60	; 0x3c
 80014d0:	bf08      	it	eq
 80014d2:	2300      	moveq	r3, #0
 80014d4:	7043      	strb	r3, [r0, #1]
 80014d6:	4770      	bx	lr

080014d8 <time_get_data>:
 80014d8:	4b02      	ldr	r3, [pc, #8]	; (80014e4 <time_get_data+0xc>)
 80014da:	681b      	ldr	r3, [r3, #0]
 80014dc:	681b      	ldr	r3, [r3, #0]
 80014de:	6003      	str	r3, [r0, #0]
 80014e0:	4770      	bx	lr
 80014e2:	bf00      	nop
 80014e4:	20000e78 	.word	0x20000e78

080014e8 <DacTask>:
 80014e8:	b5f0      	push	{r4, r5, r6, r7, lr}
 80014ea:	b08f      	sub	sp, #60	; 0x3c
 80014ec:	2300      	movs	r3, #0
 80014ee:	466c      	mov	r4, sp
 80014f0:	f88d 3014 	strb.w	r3, [sp, #20]
 80014f4:	f88d 3015 	strb.w	r3, [sp, #21]
 80014f8:	f88d 3016 	strb.w	r3, [sp, #22]
 80014fc:	f88d 3017 	strb.w	r3, [sp, #23]
 8001500:	ad06      	add	r5, sp, #24
 8001502:	f001 ff0f 	bl	8003324 <osKernelLock>
 8001506:	2260      	movs	r2, #96	; 0x60
 8001508:	4620      	mov	r0, r4
 800150a:	4b1e      	ldr	r3, [pc, #120]	; (8001584 <DacTask+0x9c>)
 800150c:	491e      	ldr	r1, [pc, #120]	; (8001588 <DacTask+0xa0>)
 800150e:	f7ff fe49 	bl	80011a4 <MCP4725_init>
 8001512:	e894 000f 	ldmia.w	r4, {r0, r1, r2, r3}
 8001516:	ae0a      	add	r6, sp, #40	; 0x28
 8001518:	e885 000f 	stmia.w	r5, {r0, r1, r2, r3}
 800151c:	2261      	movs	r2, #97	; 0x61
 800151e:	4620      	mov	r0, r4
 8001520:	4b18      	ldr	r3, [pc, #96]	; (8001584 <DacTask+0x9c>)
 8001522:	4919      	ldr	r1, [pc, #100]	; (8001588 <DacTask+0xa0>)
 8001524:	f7ff fe3e 	bl	80011a4 <MCP4725_init>
 8001528:	e894 000f 	ldmia.w	r4, {r0, r1, r2, r3}
 800152c:	e886 000f 	stmia.w	r6, {r0, r1, r2, r3}
 8001530:	f001 ff1c 	bl	800336c <osKernelUnlock>
 8001534:	4f15      	ldr	r7, [pc, #84]	; (800158c <DacTask+0xa4>)
 8001536:	f44f 7196 	mov.w	r1, #300	; 0x12c
 800153a:	6838      	ldr	r0, [r7, #0]
 800153c:	f002 f8d6 	bl	80036ec <osMutexAcquire>
 8001540:	4604      	mov	r4, r0
 8001542:	b9d8      	cbnz	r0, 800157c <DacTask+0x94>
 8001544:	a805      	add	r0, sp, #20
 8001546:	f7ff ffc7 	bl	80014d8 <time_get_data>
 800154a:	6838      	ldr	r0, [r7, #0]
 800154c:	f002 f900 	bl	8003750 <osMutexRelease>
 8001550:	f001 fee8 	bl	8003324 <osKernelLock>
 8001554:	a805      	add	r0, sp, #20
 8001556:	f7ff ff2f 	bl	80013b8 <time_hours_to_voltage>
 800155a:	4623      	mov	r3, r4
 800155c:	4601      	mov	r1, r0
 800155e:	4622      	mov	r2, r4
 8001560:	4628      	mov	r0, r5
 8001562:	f7ff feb0 	bl	80012c6 <MCP4725_setVoltage>
 8001566:	a805      	add	r0, sp, #20
 8001568:	f7ff ff72 	bl	8001450 <time_mins_to_voltage>
 800156c:	4623      	mov	r3, r4
 800156e:	4601      	mov	r1, r0
 8001570:	4622      	mov	r2, r4
 8001572:	4630      	mov	r0, r6
 8001574:	f7ff fea7 	bl	80012c6 <MCP4725_setVoltage>
 8001578:	f001 fef8 	bl	800336c <osKernelUnlock>
 800157c:	200a      	movs	r0, #10
 800157e:	f001 ff91 	bl	80034a4 <osDelay>
 8001582:	e7d8      	b.n	8001536 <DacTask+0x4e>
 8001584:	40533333 	.word	0x40533333
 8001588:	20000e94 	.word	0x20000e94
 800158c:	20000358 	.word	0x20000358

08001590 <get_leds_data>:
 8001590:	4b02      	ldr	r3, [pc, #8]	; (800159c <get_leds_data+0xc>)
 8001592:	681a      	ldr	r2, [r3, #0]
 8001594:	6002      	str	r2, [r0, #0]
 8001596:	889b      	ldrh	r3, [r3, #4]
 8001598:	8083      	strh	r3, [r0, #4]
 800159a:	4770      	bx	lr
 800159c:	20000e84 	.word	0x20000e84

080015a0 <LedTask>:
 80015a0:	e92d 43f7 	stmdb	sp!, {r0, r1, r2, r4, r5, r6, r7, r8, r9, lr}
 80015a4:	f001 ff0c 	bl	80033c0 <osKernelGetTickCount>
 80015a8:	2500      	movs	r5, #0
 80015aa:	4604      	mov	r4, r0
 80015ac:	462e      	mov	r6, r5
 80015ae:	f8df 9090 	ldr.w	r9, [pc, #144]	; 8001640 <LedTask+0xa0>
 80015b2:	4f24      	ldr	r7, [pc, #144]	; (8001644 <LedTask+0xa4>)
 80015b4:	f44f 7196 	mov.w	r1, #300	; 0x12c
 80015b8:	f8d9 0000 	ldr.w	r0, [r9]
 80015bc:	340a      	adds	r4, #10
 80015be:	f002 f94b 	bl	8003858 <osSemaphoreAcquire>
 80015c2:	b930      	cbnz	r0, 80015d2 <LedTask+0x32>
 80015c4:	4668      	mov	r0, sp
 80015c6:	f7ff ffe3 	bl	8001590 <get_leds_data>
 80015ca:	f8d9 0000 	ldr.w	r0, [r9]
 80015ce:	f002 f97f 	bl	80038d0 <osSemaphoreRelease>
 80015d2:	f89d 3000 	ldrb.w	r3, [sp]
 80015d6:	2e19      	cmp	r6, #25
 80015d8:	bf85      	ittet	hi
 80015da:	f04f 0801 	movhi.w	r8, #1
 80015de:	2600      	movhi	r6, #0
 80015e0:	f04f 0800 	movls.w	r8, #0
 80015e4:	f085 0501 	eorhi.w	r5, r5, #1
 80015e8:	bf98      	it	ls
 80015ea:	3601      	addls	r6, #1
 80015ec:	2b01      	cmp	r3, #1
 80015ee:	d123      	bne.n	8001638 <LedTask+0x98>
 80015f0:	f89d 3001 	ldrb.w	r3, [sp, #1]
 80015f4:	2b01      	cmp	r3, #1
 80015f6:	d103      	bne.n	8001600 <LedTask+0x60>
 80015f8:	f1b8 0f00 	cmp.w	r8, #0
 80015fc:	d006      	beq.n	800160c <LedTask+0x6c>
 80015fe:	b1dd      	cbz	r5, 8001638 <LedTask+0x98>
 8001600:	2201      	movs	r2, #1
 8001602:	f44f 6100 	mov.w	r1, #2048	; 0x800
 8001606:	4638      	mov	r0, r7
 8001608:	f000 fe10 	bl	800222c <HAL_GPIO_WritePin>
 800160c:	f89d 3002 	ldrb.w	r3, [sp, #2]
 8001610:	2b01      	cmp	r3, #1
 8001612:	d113      	bne.n	800163c <LedTask+0x9c>
 8001614:	f89d 3003 	ldrb.w	r3, [sp, #3]
 8001618:	2b01      	cmp	r3, #1
 800161a:	d103      	bne.n	8001624 <LedTask+0x84>
 800161c:	f1b8 0f00 	cmp.w	r8, #0
 8001620:	d006      	beq.n	8001630 <LedTask+0x90>
 8001622:	b15d      	cbz	r5, 800163c <LedTask+0x9c>
 8001624:	2201      	movs	r2, #1
 8001626:	f44f 6180 	mov.w	r1, #1024	; 0x400
 800162a:	4638      	mov	r0, r7
 800162c:	f000 fdfe 	bl	800222c <HAL_GPIO_WritePin>
 8001630:	4620      	mov	r0, r4
 8001632:	f001 ff53 	bl	80034dc <osDelayUntil>
 8001636:	e7bd      	b.n	80015b4 <LedTask+0x14>
 8001638:	2200      	movs	r2, #0
 800163a:	e7e2      	b.n	8001602 <LedTask+0x62>
 800163c:	2200      	movs	r2, #0
 800163e:	e7f2      	b.n	8001626 <LedTask+0x86>
 8001640:	20000ba8 	.word	0x20000ba8
 8001644:	40010c00 	.word	0x40010c00

08001648 <set_leds_data>:
 8001648:	6802      	ldr	r2, [r0, #0]
 800164a:	4b02      	ldr	r3, [pc, #8]	; (8001654 <set_leds_data+0xc>)
 800164c:	601a      	str	r2, [r3, #0]
 800164e:	8882      	ldrh	r2, [r0, #4]
 8001650:	809a      	strh	r2, [r3, #4]
 8001652:	4770      	bx	lr
 8001654:	20000e84 	.word	0x20000e84

08001658 <ClockTask>:
 8001658:	e92d 41f0 	stmdb	sp!, {r4, r5, r6, r7, r8, lr}
 800165c:	b08a      	sub	sp, #40	; 0x28
 800165e:	f7ff fc23 	bl	8000ea8 <DS1302_Init>
 8001662:	2000      	movs	r0, #0
 8001664:	f7ff fcea 	bl	800103c <DS1302_RamRead>
 8001668:	2100      	movs	r1, #0
 800166a:	f010 0301 	ands.w	r3, r0, #1
 800166e:	f3c0 0047 	ubfx	r0, r0, #1, #8
 8001672:	bf18      	it	ne
 8001674:	2301      	movne	r3, #1
 8001676:	2801      	cmp	r0, #1
 8001678:	bf18      	it	ne
 800167a:	4608      	movne	r0, r1
 800167c:	4d66      	ldr	r5, [pc, #408]	; (8001818 <ClockTask+0x1c0>)
 800167e:	f88d 0013 	strb.w	r0, [sp, #19]
 8001682:	6828      	ldr	r0, [r5, #0]
 8001684:	f88d 3014 	strb.w	r3, [sp, #20]
 8001688:	f88d 3016 	strb.w	r3, [sp, #22]
 800168c:	f88d 3018 	strb.w	r3, [sp, #24]
 8001690:	f88d 1010 	strb.w	r1, [sp, #16]
 8001694:	f88d 1011 	strb.w	r1, [sp, #17]
 8001698:	f88d 1012 	strb.w	r1, [sp, #18]
 800169c:	f002 f826 	bl	80036ec <osMutexAcquire>
 80016a0:	b928      	cbnz	r0, 80016ae <ClockTask+0x56>
 80016a2:	a805      	add	r0, sp, #20
 80016a4:	f7ff ffd0 	bl	8001648 <set_leds_data>
 80016a8:	6828      	ldr	r0, [r5, #0]
 80016aa:	f002 f851 	bl	8003750 <osMutexRelease>
 80016ae:	4668      	mov	r0, sp
 80016b0:	f7ff fd0f 	bl	80010d2 <DS1302_ReadTime_Struct>
 80016b4:	9800      	ldr	r0, [sp, #0]
 80016b6:	9901      	ldr	r1, [sp, #4]
 80016b8:	ab07      	add	r3, sp, #28
 80016ba:	c303      	stmia	r3!, {r0, r1}
 80016bc:	f8bd 2008 	ldrh.w	r2, [sp, #8]
 80016c0:	801a      	strh	r2, [r3, #0]
 80016c2:	f89d 3023 	ldrb.w	r3, [sp, #35]	; 0x23
 80016c6:	b99b      	cbnz	r3, 80016f0 <ClockTask+0x98>
 80016c8:	f8bd 3024 	ldrh.w	r3, [sp, #36]	; 0x24
 80016cc:	b983      	cbnz	r3, 80016f0 <ClockTask+0x98>
 80016ce:	f8bd 201c 	ldrh.w	r2, [sp, #28]
 80016d2:	f5b2 6ffa 	cmp.w	r2, #2000	; 0x7d0
 80016d6:	d10b      	bne.n	80016f0 <ClockTask+0x98>
 80016d8:	f240 72d2 	movw	r2, #2002	; 0x7d2
 80016dc:	f8ad 201c 	strh.w	r2, [sp, #28]
 80016e0:	2205      	movs	r2, #5
 80016e2:	a807      	add	r0, sp, #28
 80016e4:	f88d 2025 	strb.w	r2, [sp, #37]	; 0x25
 80016e8:	f88d 3021 	strb.w	r3, [sp, #33]	; 0x21
 80016ec:	f7ff fcaa 	bl	8001044 <DS1302_SetTime_Struct>
 80016f0:	4c4a      	ldr	r4, [pc, #296]	; (800181c <ClockTask+0x1c4>)
 80016f2:	2100      	movs	r1, #0
 80016f4:	6820      	ldr	r0, [r4, #0]
 80016f6:	f001 fff9 	bl	80036ec <osMutexAcquire>
 80016fa:	b928      	cbnz	r0, 8001708 <ClockTask+0xb0>
 80016fc:	9804      	ldr	r0, [sp, #16]
 80016fe:	4b48      	ldr	r3, [pc, #288]	; (8001820 <ClockTask+0x1c8>)
 8001700:	6018      	str	r0, [r3, #0]
 8001702:	6820      	ldr	r0, [r4, #0]
 8001704:	f002 f824 	bl	8003750 <osMutexRelease>
 8001708:	4f46      	ldr	r7, [pc, #280]	; (8001824 <ClockTask+0x1cc>)
 800170a:	6838      	ldr	r0, [r7, #0]
 800170c:	f001 ff8e 	bl	800362c <osEventFlagsGet>
 8001710:	2801      	cmp	r0, #1
 8001712:	4601      	mov	r1, r0
 8001714:	d158      	bne.n	80017c8 <ClockTask+0x170>
 8001716:	6838      	ldr	r0, [r7, #0]
 8001718:	f001 ff58 	bl	80035cc <osEventFlagsClear>
 800171c:	2100      	movs	r1, #0
 800171e:	6820      	ldr	r0, [r4, #0]
 8001720:	f001 ffe4 	bl	80036ec <osMutexAcquire>
 8001724:	4601      	mov	r1, r0
 8001726:	bb68      	cbnz	r0, 8001784 <ClockTask+0x12c>
 8001728:	a804      	add	r0, sp, #16
 800172a:	f7ff fed5 	bl	80014d8 <time_get_data>
 800172e:	f89d 3010 	ldrb.w	r3, [sp, #16]
 8001732:	9804      	ldr	r0, [sp, #16]
 8001734:	f8df 80e8 	ldr.w	r8, [pc, #232]	; 8001820 <ClockTask+0x1c8>
 8001738:	f88d 3023 	strb.w	r3, [sp, #35]	; 0x23
 800173c:	f89d 3011 	ldrb.w	r3, [sp, #17]
 8001740:	f8c8 0000 	str.w	r0, [r8]
 8001744:	6828      	ldr	r0, [r5, #0]
 8001746:	f88d 3024 	strb.w	r3, [sp, #36]	; 0x24
 800174a:	f001 ffcf 	bl	80036ec <osMutexAcquire>
 800174e:	4606      	mov	r6, r0
 8001750:	b978      	cbnz	r0, 8001772 <ClockTask+0x11a>
 8001752:	a805      	add	r0, sp, #20
 8001754:	f7ff ff1c 	bl	8001590 <get_leds_data>
 8001758:	f89d 3013 	ldrb.w	r3, [sp, #19]
 800175c:	f89d 1014 	ldrb.w	r1, [sp, #20]
 8001760:	4630      	mov	r0, r6
 8001762:	ea41 0143 	orr.w	r1, r1, r3, lsl #1
 8001766:	b2c9      	uxtb	r1, r1
 8001768:	f7ff fc55 	bl	8001016 <DS1302_RamSave>
 800176c:	6828      	ldr	r0, [r5, #0]
 800176e:	f001 ffef 	bl	8003750 <osMutexRelease>
 8001772:	a807      	add	r0, sp, #28
 8001774:	f7ff fc66 	bl	8001044 <DS1302_SetTime_Struct>
 8001778:	4b2b      	ldr	r3, [pc, #172]	; (8001828 <ClockTask+0x1d0>)
 800177a:	6820      	ldr	r0, [r4, #0]
 800177c:	f8c3 8000 	str.w	r8, [r3]
 8001780:	f001 ffe6 	bl	8003750 <osMutexRelease>
 8001784:	4668      	mov	r0, sp
 8001786:	f7ff fca4 	bl	80010d2 <DS1302_ReadTime_Struct>
 800178a:	9800      	ldr	r0, [sp, #0]
 800178c:	9901      	ldr	r1, [sp, #4]
 800178e:	ab07      	add	r3, sp, #28
 8001790:	c303      	stmia	r3!, {r0, r1}
 8001792:	f8bd 2008 	ldrh.w	r2, [sp, #8]
 8001796:	2100      	movs	r1, #0
 8001798:	801a      	strh	r2, [r3, #0]
 800179a:	f89d 3023 	ldrb.w	r3, [sp, #35]	; 0x23
 800179e:	6820      	ldr	r0, [r4, #0]
 80017a0:	f88d 3010 	strb.w	r3, [sp, #16]
 80017a4:	f89d 3024 	ldrb.w	r3, [sp, #36]	; 0x24
 80017a8:	f88d 3011 	strb.w	r3, [sp, #17]
 80017ac:	f001 ff9e 	bl	80036ec <osMutexAcquire>
 80017b0:	b928      	cbnz	r0, 80017be <ClockTask+0x166>
 80017b2:	9804      	ldr	r0, [sp, #16]
 80017b4:	4b1a      	ldr	r3, [pc, #104]	; (8001820 <ClockTask+0x1c8>)
 80017b6:	6018      	str	r0, [r3, #0]
 80017b8:	6820      	ldr	r0, [r4, #0]
 80017ba:	f001 ffc9 	bl	8003750 <osMutexRelease>
 80017be:	f44f 70fa 	mov.w	r0, #500	; 0x1f4
 80017c2:	f001 fe6f 	bl	80034a4 <osDelay>
 80017c6:	e7a0      	b.n	800170a <ClockTask+0xb2>
 80017c8:	2802      	cmp	r0, #2
 80017ca:	d1db      	bne.n	8001784 <ClockTask+0x12c>
 80017cc:	2100      	movs	r1, #0
 80017ce:	6820      	ldr	r0, [r4, #0]
 80017d0:	f001 ff8c 	bl	80036ec <osMutexAcquire>
 80017d4:	b928      	cbnz	r0, 80017e2 <ClockTask+0x18a>
 80017d6:	a804      	add	r0, sp, #16
 80017d8:	f7ff fe7e 	bl	80014d8 <time_get_data>
 80017dc:	6820      	ldr	r0, [r4, #0]
 80017de:	f001 ffb7 	bl	8003750 <osMutexRelease>
 80017e2:	2102      	movs	r1, #2
 80017e4:	6838      	ldr	r0, [r7, #0]
 80017e6:	f001 fef1 	bl	80035cc <osEventFlagsClear>
 80017ea:	2100      	movs	r1, #0
 80017ec:	6828      	ldr	r0, [r5, #0]
 80017ee:	f001 ff7d 	bl	80036ec <osMutexAcquire>
 80017f2:	4606      	mov	r6, r0
 80017f4:	2800      	cmp	r0, #0
 80017f6:	d1c5      	bne.n	8001784 <ClockTask+0x12c>
 80017f8:	a805      	add	r0, sp, #20
 80017fa:	f7ff fec9 	bl	8001590 <get_leds_data>
 80017fe:	f89d 3013 	ldrb.w	r3, [sp, #19]
 8001802:	f89d 1014 	ldrb.w	r1, [sp, #20]
 8001806:	4630      	mov	r0, r6
 8001808:	ea41 0143 	orr.w	r1, r1, r3, lsl #1
 800180c:	b2c9      	uxtb	r1, r1
 800180e:	f7ff fc02 	bl	8001016 <DS1302_RamSave>
 8001812:	6828      	ldr	r0, [r5, #0]
 8001814:	e7b4      	b.n	8001780 <ClockTask+0x128>
 8001816:	bf00      	nop
 8001818:	20000ba8 	.word	0x20000ba8
 800181c:	20000358 	.word	0x20000358
 8001820:	20000e90 	.word	0x20000e90
 8001824:	20000e70 	.word	0x20000e70
 8001828:	20000e78 	.word	0x20000e78

0800182c <toggle_leds>:
 800182c:	7803      	ldrb	r3, [r0, #0]
 800182e:	3b01      	subs	r3, #1
 8001830:	bf18      	it	ne
 8001832:	2301      	movne	r3, #1
 8001834:	7003      	strb	r3, [r0, #0]
 8001836:	7883      	ldrb	r3, [r0, #2]
 8001838:	3b01      	subs	r3, #1
 800183a:	bf18      	it	ne
 800183c:	2301      	movne	r3, #1
 800183e:	7083      	strb	r3, [r0, #2]
 8001840:	4770      	bx	lr
	...

08001844 <MainTask>:
 8001844:	e92d 41f0 	stmdb	sp!, {r4, r5, r6, r7, r8, lr}
 8001848:	2400      	movs	r4, #0
 800184a:	b086      	sub	sp, #24
 800184c:	4d98      	ldr	r5, [pc, #608]	; (8001ab0 <MainTask+0x26c>)
 800184e:	4f99      	ldr	r7, [pc, #612]	; (8001ab4 <MainTask+0x270>)
 8001850:	4e99      	ldr	r6, [pc, #612]	; (8001ab8 <MainTask+0x274>)
 8001852:	f88d 4004 	strb.w	r4, [sp, #4]
 8001856:	f88d 4005 	strb.w	r4, [sp, #5]
 800185a:	f88d 4006 	strb.w	r4, [sp, #6]
 800185e:	f88d 4007 	strb.w	r4, [sp, #7]
 8001862:	2c05      	cmp	r4, #5
 8001864:	d814      	bhi.n	8001890 <MainTask+0x4c>
 8001866:	e8df f014 	tbh	[pc, r4, lsl #1]
 800186a:	0006      	.short	0x0006
 800186c:	00620017 	.word	0x00620017
 8001870:	00d1009d 	.word	0x00d1009d
 8001874:	0111      	.short	0x0111
 8001876:	2401      	movs	r4, #1
 8001878:	a802      	add	r0, sp, #8
 800187a:	f7ff fe89 	bl	8001590 <get_leds_data>
 800187e:	a804      	add	r0, sp, #16
 8001880:	f7ff fe86 	bl	8001590 <get_leds_data>
 8001884:	f88d 4011 	strb.w	r4, [sp, #17]
 8001888:	f88d 4013 	strb.w	r4, [sp, #19]
 800188c:	f88d 4015 	strb.w	r4, [sp, #21]
 8001890:	200a      	movs	r0, #10
 8001892:	f001 fe07 	bl	80034a4 <osDelay>
 8001896:	e7e4      	b.n	8001862 <MainTask+0x1e>
 8001898:	f44f 7396 	mov.w	r3, #300	; 0x12c
 800189c:	2200      	movs	r2, #0
 800189e:	4669      	mov	r1, sp
 80018a0:	6830      	ldr	r0, [r6, #0]
 80018a2:	f002 f8d9 	bl	8003a58 <osMessageQueueGet>
 80018a6:	2800      	cmp	r0, #0
 80018a8:	d1f2      	bne.n	8001890 <MainTask+0x4c>
 80018aa:	f89d 1001 	ldrb.w	r1, [sp, #1]
 80018ae:	b339      	cbz	r1, 8001900 <MainTask+0xbc>
 80018b0:	2301      	movs	r3, #1
 80018b2:	4601      	mov	r1, r0
 80018b4:	f88d 0013 	strb.w	r0, [sp, #19]
 80018b8:	6828      	ldr	r0, [r5, #0]
 80018ba:	f88d 3010 	strb.w	r3, [sp, #16]
 80018be:	f88d 3011 	strb.w	r3, [sp, #17]
 80018c2:	f88d 3012 	strb.w	r3, [sp, #18]
 80018c6:	f001 ffc7 	bl	8003858 <osSemaphoreAcquire>
 80018ca:	b928      	cbnz	r0, 80018d8 <MainTask+0x94>
 80018cc:	a804      	add	r0, sp, #16
 80018ce:	f7ff febb 	bl	8001648 <set_leds_data>
 80018d2:	6828      	ldr	r0, [r5, #0]
 80018d4:	f001 fffc 	bl	80038d0 <osSemaphoreRelease>
 80018d8:	4c78      	ldr	r4, [pc, #480]	; (8001abc <MainTask+0x278>)
 80018da:	2100      	movs	r1, #0
 80018dc:	6820      	ldr	r0, [r4, #0]
 80018de:	f001 ff05 	bl	80036ec <osMutexAcquire>
 80018e2:	b108      	cbz	r0, 80018e8 <MainTask+0xa4>
 80018e4:	2402      	movs	r4, #2
 80018e6:	e7d3      	b.n	8001890 <MainTask+0x4c>
 80018e8:	a801      	add	r0, sp, #4
 80018ea:	f7ff fdf5 	bl	80014d8 <time_get_data>
 80018ee:	4b74      	ldr	r3, [pc, #464]	; (8001ac0 <MainTask+0x27c>)
 80018f0:	9801      	ldr	r0, [sp, #4]
 80018f2:	4a74      	ldr	r2, [pc, #464]	; (8001ac4 <MainTask+0x280>)
 80018f4:	6018      	str	r0, [r3, #0]
 80018f6:	6820      	ldr	r0, [r4, #0]
 80018f8:	6013      	str	r3, [r2, #0]
 80018fa:	f001 ff29 	bl	8003750 <osMutexRelease>
 80018fe:	e7f1      	b.n	80018e4 <MainTask+0xa0>
 8001900:	f89d 3000 	ldrb.w	r3, [sp]
 8001904:	2b00      	cmp	r3, #0
 8001906:	d0c3      	beq.n	8001890 <MainTask+0x4c>
 8001908:	a802      	add	r0, sp, #8
 800190a:	f7ff ff8f 	bl	800182c <toggle_leds>
 800190e:	6828      	ldr	r0, [r5, #0]
 8001910:	f001 ffa2 	bl	8003858 <osSemaphoreAcquire>
 8001914:	2800      	cmp	r0, #0
 8001916:	d1bb      	bne.n	8001890 <MainTask+0x4c>
 8001918:	2102      	movs	r1, #2
 800191a:	6838      	ldr	r0, [r7, #0]
 800191c:	f001 fe1c 	bl	8003558 <osEventFlagsSet>
 8001920:	a802      	add	r0, sp, #8
 8001922:	f7ff fe91 	bl	8001648 <set_leds_data>
 8001926:	6828      	ldr	r0, [r5, #0]
 8001928:	f001 ffd2 	bl	80038d0 <osSemaphoreRelease>
 800192c:	e7b0      	b.n	8001890 <MainTask+0x4c>
 800192e:	4669      	mov	r1, sp
 8001930:	f44f 7396 	mov.w	r3, #300	; 0x12c
 8001934:	2200      	movs	r2, #0
 8001936:	6830      	ldr	r0, [r6, #0]
 8001938:	f002 f88e 	bl	8003a58 <osMessageQueueGet>
 800193c:	4601      	mov	r1, r0
 800193e:	2800      	cmp	r0, #0
 8001940:	d1d0      	bne.n	80018e4 <MainTask+0xa0>
 8001942:	f89d 3000 	ldrb.w	r3, [sp]
 8001946:	b193      	cbz	r3, 800196e <MainTask+0x12a>
 8001948:	f8df 8170 	ldr.w	r8, [pc, #368]	; 8001abc <MainTask+0x278>
 800194c:	a801      	add	r0, sp, #4
 800194e:	f7ff fdb3 	bl	80014b8 <time_hour_increment>
 8001952:	f8d8 0000 	ldr.w	r0, [r8]
 8001956:	f001 fec9 	bl	80036ec <osMutexAcquire>
 800195a:	2800      	cmp	r0, #0
 800195c:	d1c2      	bne.n	80018e4 <MainTask+0xa0>
 800195e:	9801      	ldr	r0, [sp, #4]
 8001960:	4b57      	ldr	r3, [pc, #348]	; (8001ac0 <MainTask+0x27c>)
 8001962:	6018      	str	r0, [r3, #0]
 8001964:	f8d8 0000 	ldr.w	r0, [r8]
 8001968:	f001 fef2 	bl	8003750 <osMutexRelease>
 800196c:	e790      	b.n	8001890 <MainTask+0x4c>
 800196e:	f89d 2001 	ldrb.w	r2, [sp, #1]
 8001972:	2a00      	cmp	r2, #0
 8001974:	d0b6      	beq.n	80018e4 <MainTask+0xa0>
 8001976:	2201      	movs	r2, #1
 8001978:	4619      	mov	r1, r3
 800197a:	6828      	ldr	r0, [r5, #0]
 800197c:	f88d 2010 	strb.w	r2, [sp, #16]
 8001980:	f88d 3011 	strb.w	r3, [sp, #17]
 8001984:	f88d 2012 	strb.w	r2, [sp, #18]
 8001988:	f88d 2013 	strb.w	r2, [sp, #19]
 800198c:	f001 ff64 	bl	8003858 <osSemaphoreAcquire>
 8001990:	b108      	cbz	r0, 8001996 <MainTask+0x152>
 8001992:	2403      	movs	r4, #3
 8001994:	e77c      	b.n	8001890 <MainTask+0x4c>
 8001996:	a804      	add	r0, sp, #16
 8001998:	f7ff fe56 	bl	8001648 <set_leds_data>
 800199c:	6828      	ldr	r0, [r5, #0]
 800199e:	f001 ff97 	bl	80038d0 <osSemaphoreRelease>
 80019a2:	e7f6      	b.n	8001992 <MainTask+0x14e>
 80019a4:	4669      	mov	r1, sp
 80019a6:	f44f 7396 	mov.w	r3, #300	; 0x12c
 80019aa:	2200      	movs	r2, #0
 80019ac:	6830      	ldr	r0, [r6, #0]
 80019ae:	f002 f853 	bl	8003a58 <osMessageQueueGet>
 80019b2:	4601      	mov	r1, r0
 80019b4:	2800      	cmp	r0, #0
 80019b6:	d1ec      	bne.n	8001992 <MainTask+0x14e>
 80019b8:	f89d 2000 	ldrb.w	r2, [sp]
 80019bc:	b15a      	cbz	r2, 80019d6 <MainTask+0x192>
 80019be:	f8df 80fc 	ldr.w	r8, [pc, #252]	; 8001abc <MainTask+0x278>
 80019c2:	a801      	add	r0, sp, #4
 80019c4:	f7ff fd80 	bl	80014c8 <time_min_increment>
 80019c8:	f8d8 0000 	ldr.w	r0, [r8]
 80019cc:	f001 fe8e 	bl	80036ec <osMutexAcquire>
 80019d0:	2800      	cmp	r0, #0
 80019d2:	d1de      	bne.n	8001992 <MainTask+0x14e>
 80019d4:	e7c3      	b.n	800195e <MainTask+0x11a>
 80019d6:	f89d 3001 	ldrb.w	r3, [sp, #1]
 80019da:	2b00      	cmp	r3, #0
 80019dc:	d0d9      	beq.n	8001992 <MainTask+0x14e>
 80019de:	2301      	movs	r3, #1
 80019e0:	4611      	mov	r1, r2
 80019e2:	6828      	ldr	r0, [r5, #0]
 80019e4:	f88d 3012 	strb.w	r3, [sp, #18]
 80019e8:	f88d 3010 	strb.w	r3, [sp, #16]
 80019ec:	f88d 3013 	strb.w	r3, [sp, #19]
 80019f0:	f88d 3011 	strb.w	r3, [sp, #17]
 80019f4:	f001 ff30 	bl	8003858 <osSemaphoreAcquire>
 80019f8:	b108      	cbz	r0, 80019fe <MainTask+0x1ba>
 80019fa:	2404      	movs	r4, #4
 80019fc:	e748      	b.n	8001890 <MainTask+0x4c>
 80019fe:	a804      	add	r0, sp, #16
 8001a00:	f7ff fe22 	bl	8001648 <set_leds_data>
 8001a04:	6828      	ldr	r0, [r5, #0]
 8001a06:	f001 ff63 	bl	80038d0 <osSemaphoreRelease>
 8001a0a:	e7f6      	b.n	80019fa <MainTask+0x1b6>
 8001a0c:	4669      	mov	r1, sp
 8001a0e:	f44f 7396 	mov.w	r3, #300	; 0x12c
 8001a12:	2200      	movs	r2, #0
 8001a14:	6830      	ldr	r0, [r6, #0]
 8001a16:	f002 f81f 	bl	8003a58 <osMessageQueueGet>
 8001a1a:	4601      	mov	r1, r0
 8001a1c:	2800      	cmp	r0, #0
 8001a1e:	d1ec      	bne.n	80019fa <MainTask+0x1b6>
 8001a20:	f89d 3000 	ldrb.w	r3, [sp]
 8001a24:	b17b      	cbz	r3, 8001a46 <MainTask+0x202>
 8001a26:	f89d 3007 	ldrb.w	r3, [sp, #7]
 8001a2a:	f8df 8090 	ldr.w	r8, [pc, #144]	; 8001abc <MainTask+0x278>
 8001a2e:	fab3 f383 	clz	r3, r3
 8001a32:	f8d8 0000 	ldr.w	r0, [r8]
 8001a36:	095b      	lsrs	r3, r3, #5
 8001a38:	f88d 3007 	strb.w	r3, [sp, #7]
 8001a3c:	f001 fe56 	bl	80036ec <osMutexAcquire>
 8001a40:	2800      	cmp	r0, #0
 8001a42:	d1da      	bne.n	80019fa <MainTask+0x1b6>
 8001a44:	e78b      	b.n	800195e <MainTask+0x11a>
 8001a46:	f89d 2001 	ldrb.w	r2, [sp, #1]
 8001a4a:	2a00      	cmp	r2, #0
 8001a4c:	d0d5      	beq.n	80019fa <MainTask+0x1b6>
 8001a4e:	4619      	mov	r1, r3
 8001a50:	6828      	ldr	r0, [r5, #0]
 8001a52:	f88d 3012 	strb.w	r3, [sp, #18]
 8001a56:	f88d 3010 	strb.w	r3, [sp, #16]
 8001a5a:	f88d 3014 	strb.w	r3, [sp, #20]
 8001a5e:	f001 fefb 	bl	8003858 <osSemaphoreAcquire>
 8001a62:	b928      	cbnz	r0, 8001a70 <MainTask+0x22c>
 8001a64:	a804      	add	r0, sp, #16
 8001a66:	f7ff fdef 	bl	8001648 <set_leds_data>
 8001a6a:	6828      	ldr	r0, [r5, #0]
 8001a6c:	f001 ff30 	bl	80038d0 <osSemaphoreRelease>
 8001a70:	4c12      	ldr	r4, [pc, #72]	; (8001abc <MainTask+0x278>)
 8001a72:	2100      	movs	r1, #0
 8001a74:	6820      	ldr	r0, [r4, #0]
 8001a76:	f001 fe39 	bl	80036ec <osMutexAcquire>
 8001a7a:	b928      	cbnz	r0, 8001a88 <MainTask+0x244>
 8001a7c:	9801      	ldr	r0, [sp, #4]
 8001a7e:	4b10      	ldr	r3, [pc, #64]	; (8001ac0 <MainTask+0x27c>)
 8001a80:	6018      	str	r0, [r3, #0]
 8001a82:	6820      	ldr	r0, [r4, #0]
 8001a84:	f001 fe64 	bl	8003750 <osMutexRelease>
 8001a88:	2405      	movs	r4, #5
 8001a8a:	e701      	b.n	8001890 <MainTask+0x4c>
 8001a8c:	2100      	movs	r1, #0
 8001a8e:	6828      	ldr	r0, [r5, #0]
 8001a90:	f001 fee2 	bl	8003858 <osSemaphoreAcquire>
 8001a94:	b928      	cbnz	r0, 8001aa2 <MainTask+0x25e>
 8001a96:	a802      	add	r0, sp, #8
 8001a98:	f7ff fdd6 	bl	8001648 <set_leds_data>
 8001a9c:	6828      	ldr	r0, [r5, #0]
 8001a9e:	f001 ff17 	bl	80038d0 <osSemaphoreRelease>
 8001aa2:	2101      	movs	r1, #1
 8001aa4:	6838      	ldr	r0, [r7, #0]
 8001aa6:	f001 fd57 	bl	8003558 <osEventFlagsSet>
 8001aaa:	2401      	movs	r4, #1
 8001aac:	e6f0      	b.n	8001890 <MainTask+0x4c>
 8001aae:	bf00      	nop
 8001ab0:	20000ba8 	.word	0x20000ba8
 8001ab4:	20000e70 	.word	0x20000e70
 8001ab8:	20000354 	.word	0x20000354
 8001abc:	20000358 	.word	0x20000358
 8001ac0:	20000e7c 	.word	0x20000e7c
 8001ac4:	20000e78 	.word	0x20000e78

08001ac8 <init_leds_data>:
 8001ac8:	2200      	movs	r2, #0
 8001aca:	4b03      	ldr	r3, [pc, #12]	; (8001ad8 <init_leds_data+0x10>)
 8001acc:	705a      	strb	r2, [r3, #1]
 8001ace:	701a      	strb	r2, [r3, #0]
 8001ad0:	70da      	strb	r2, [r3, #3]
 8001ad2:	709a      	strb	r2, [r3, #2]
 8001ad4:	4770      	bx	lr
 8001ad6:	bf00      	nop
 8001ad8:	20000e84 	.word	0x20000e84

08001adc <SystemClock_Config>:
 8001adc:	b530      	push	{r4, r5, lr}
 8001ade:	b091      	sub	sp, #68	; 0x44
 8001ae0:	2210      	movs	r2, #16
 8001ae2:	2100      	movs	r1, #0
 8001ae4:	a808      	add	r0, sp, #32
 8001ae6:	f004 f8d7 	bl	8005c98 <memset>
 8001aea:	2214      	movs	r2, #20
 8001aec:	2100      	movs	r1, #0
 8001aee:	a801      	add	r0, sp, #4
 8001af0:	f004 f8d2 	bl	8005c98 <memset>
 8001af4:	2502      	movs	r5, #2
 8001af6:	f44f 3380 	mov.w	r3, #65536	; 0x10000
 8001afa:	2209      	movs	r2, #9
 8001afc:	2401      	movs	r4, #1
 8001afe:	e9cd 2306 	strd	r2, r3, [sp, #24]
 8001b02:	e9cd 530d 	strd	r5, r3, [sp, #52]	; 0x34
 8001b06:	f44f 1380 	mov.w	r3, #1048576	; 0x100000
 8001b0a:	a806      	add	r0, sp, #24
 8001b0c:	940a      	str	r4, [sp, #40]	; 0x28
 8001b0e:	940c      	str	r4, [sp, #48]	; 0x30
 8001b10:	930f      	str	r3, [sp, #60]	; 0x3c
 8001b12:	f000 ffe3 	bl	8002adc <HAL_RCC_OscConfig>
 8001b16:	b108      	cbz	r0, 8001b1c <SystemClock_Config+0x40>
 8001b18:	b672      	cpsid	i
 8001b1a:	e7fe      	b.n	8001b1a <SystemClock_Config+0x3e>
 8001b1c:	230f      	movs	r3, #15
 8001b1e:	e9cd 3501 	strd	r3, r5, [sp, #4]
 8001b22:	f44f 6380 	mov.w	r3, #1024	; 0x400
 8001b26:	9003      	str	r0, [sp, #12]
 8001b28:	e9cd 3004 	strd	r3, r0, [sp, #16]
 8001b2c:	4621      	mov	r1, r4
 8001b2e:	a801      	add	r0, sp, #4
 8001b30:	f001 f9aa 	bl	8002e88 <HAL_RCC_ClockConfig>
 8001b34:	b108      	cbz	r0, 8001b3a <SystemClock_Config+0x5e>
 8001b36:	b672      	cpsid	i
 8001b38:	e7fe      	b.n	8001b38 <SystemClock_Config+0x5c>
 8001b3a:	b011      	add	sp, #68	; 0x44
 8001b3c:	bd30      	pop	{r4, r5, pc}
	...

08001b40 <main>:
 8001b40:	b580      	push	{r7, lr}
 8001b42:	b088      	sub	sp, #32
 8001b44:	f000 fa0a 	bl	8001f5c <HAL_Init>
 8001b48:	f7ff ffc8 	bl	8001adc <SystemClock_Config>
 8001b4c:	2210      	movs	r2, #16
 8001b4e:	2100      	movs	r1, #0
 8001b50:	eb0d 0002 	add.w	r0, sp, r2
 8001b54:	f004 f8a0 	bl	8005c98 <memset>
 8001b58:	4b6f      	ldr	r3, [pc, #444]	; (8001d18 <main+0x1d8>)
 8001b5a:	2160      	movs	r1, #96	; 0x60
 8001b5c:	699a      	ldr	r2, [r3, #24]
 8001b5e:	486f      	ldr	r0, [pc, #444]	; (8001d1c <main+0x1dc>)
 8001b60:	f042 0220 	orr.w	r2, r2, #32
 8001b64:	619a      	str	r2, [r3, #24]
 8001b66:	699a      	ldr	r2, [r3, #24]
 8001b68:	2400      	movs	r4, #0
 8001b6a:	f002 0220 	and.w	r2, r2, #32
 8001b6e:	9201      	str	r2, [sp, #4]
 8001b70:	9a01      	ldr	r2, [sp, #4]
 8001b72:	699a      	ldr	r2, [r3, #24]
 8001b74:	2502      	movs	r5, #2
 8001b76:	f042 0204 	orr.w	r2, r2, #4
 8001b7a:	619a      	str	r2, [r3, #24]
 8001b7c:	699a      	ldr	r2, [r3, #24]
 8001b7e:	2701      	movs	r7, #1
 8001b80:	f002 0204 	and.w	r2, r2, #4
 8001b84:	9202      	str	r2, [sp, #8]
 8001b86:	9a02      	ldr	r2, [sp, #8]
 8001b88:	699a      	ldr	r2, [r3, #24]
 8001b8a:	f042 0208 	orr.w	r2, r2, #8
 8001b8e:	619a      	str	r2, [r3, #24]
 8001b90:	699b      	ldr	r3, [r3, #24]
 8001b92:	2200      	movs	r2, #0
 8001b94:	f003 0308 	and.w	r3, r3, #8
 8001b98:	9303      	str	r3, [sp, #12]
 8001b9a:	9b03      	ldr	r3, [sp, #12]
 8001b9c:	f000 fb46 	bl	800222c <HAL_GPIO_WritePin>
 8001ba0:	2201      	movs	r2, #1
 8001ba2:	f44f 6140 	mov.w	r1, #3072	; 0xc00
 8001ba6:	485e      	ldr	r0, [pc, #376]	; (8001d20 <main+0x1e0>)
 8001ba8:	f000 fb40 	bl	800222c <HAL_GPIO_WritePin>
 8001bac:	2200      	movs	r2, #0
 8001bae:	f44f 5180 	mov.w	r1, #4096	; 0x1000
 8001bb2:	485b      	ldr	r0, [pc, #364]	; (8001d20 <main+0x1e0>)
 8001bb4:	f000 fb3a 	bl	800222c <HAL_GPIO_WritePin>
 8001bb8:	2360      	movs	r3, #96	; 0x60
 8001bba:	4858      	ldr	r0, [pc, #352]	; (8001d1c <main+0x1dc>)
 8001bbc:	a904      	add	r1, sp, #16
 8001bbe:	e9cd 3704 	strd	r3, r7, [sp, #16]
 8001bc2:	e9cd 4506 	strd	r4, r5, [sp, #24]
 8001bc6:	f000 fa51 	bl	800206c <HAL_GPIO_Init>
 8001bca:	2380      	movs	r3, #128	; 0x80
 8001bcc:	4853      	ldr	r0, [pc, #332]	; (8001d1c <main+0x1dc>)
 8001bce:	a904      	add	r1, sp, #16
 8001bd0:	e9cd 3404 	strd	r3, r4, [sp, #16]
 8001bd4:	9406      	str	r4, [sp, #24]
 8001bd6:	f000 fa49 	bl	800206c <HAL_GPIO_Init>
 8001bda:	f44f 6240 	mov.w	r2, #3072	; 0xc00
 8001bde:	2311      	movs	r3, #17
 8001be0:	484f      	ldr	r0, [pc, #316]	; (8001d20 <main+0x1e0>)
 8001be2:	a904      	add	r1, sp, #16
 8001be4:	e9cd 2304 	strd	r2, r3, [sp, #16]
 8001be8:	e9cd 4506 	strd	r4, r5, [sp, #24]
 8001bec:	f000 fa3e 	bl	800206c <HAL_GPIO_Init>
 8001bf0:	f44f 5380 	mov.w	r3, #4096	; 0x1000
 8001bf4:	484a      	ldr	r0, [pc, #296]	; (8001d20 <main+0x1e0>)
 8001bf6:	a904      	add	r1, sp, #16
 8001bf8:	e9cd 3704 	strd	r3, r7, [sp, #16]
 8001bfc:	e9cd 4506 	strd	r4, r5, [sp, #24]
 8001c00:	f000 fa34 	bl	800206c <HAL_GPIO_Init>
 8001c04:	f44f 4340 	mov.w	r3, #49152	; 0xc000
 8001c08:	4845      	ldr	r0, [pc, #276]	; (8001d20 <main+0x1e0>)
 8001c0a:	a904      	add	r1, sp, #16
 8001c0c:	e9cd 3404 	strd	r3, r4, [sp, #16]
 8001c10:	9506      	str	r5, [sp, #24]
 8001c12:	f000 fa2b 	bl	800206c <HAL_GPIO_Init>
 8001c16:	4843      	ldr	r0, [pc, #268]	; (8001d24 <main+0x1e4>)
 8001c18:	4b43      	ldr	r3, [pc, #268]	; (8001d28 <main+0x1e8>)
 8001c1a:	4944      	ldr	r1, [pc, #272]	; (8001d2c <main+0x1ec>)
 8001c1c:	e9c0 4402 	strd	r4, r4, [r0, #8]
 8001c20:	e9c0 1300 	strd	r1, r3, [r0]
 8001c24:	f44f 4380 	mov.w	r3, #16384	; 0x4000
 8001c28:	e9c0 4406 	strd	r4, r4, [r0, #24]
 8001c2c:	e9c0 3404 	strd	r3, r4, [r0, #16]
 8001c30:	6204      	str	r4, [r0, #32]
 8001c32:	f000 fc01 	bl	8002438 <HAL_I2C_Init>
 8001c36:	b108      	cbz	r0, 8001c3c <main+0xfc>
 8001c38:	b672      	cpsid	i
 8001c3a:	e7fe      	b.n	8001c3a <main+0xfa>
 8001c3c:	4e3c      	ldr	r6, [pc, #240]	; (8001d30 <main+0x1f0>)
 8001c3e:	4b3d      	ldr	r3, [pc, #244]	; (8001d34 <main+0x1f4>)
 8001c40:	e9c6 3000 	strd	r3, r0, [r6]
 8001c44:	f640 73ff 	movw	r3, #4095	; 0xfff
 8001c48:	4630      	mov	r0, r6
 8001c4a:	60b3      	str	r3, [r6, #8]
 8001c4c:	f000 ff18 	bl	8002a80 <HAL_IWDG_Init>
 8001c50:	4604      	mov	r4, r0
 8001c52:	b108      	cbz	r0, 8001c58 <main+0x118>
 8001c54:	b672      	cpsid	i
 8001c56:	e7fe      	b.n	8001c56 <main+0x116>
 8001c58:	f7ff ff36 	bl	8001ac8 <init_leds_data>
 8001c5c:	4a36      	ldr	r2, [pc, #216]	; (8001d38 <main+0x1f8>)
 8001c5e:	4b37      	ldr	r3, [pc, #220]	; (8001d3c <main+0x1fc>)
 8001c60:	7010      	strb	r0, [r2, #0]
 8001c62:	7050      	strb	r0, [r2, #1]
 8001c64:	7090      	strb	r0, [r2, #2]
 8001c66:	70d0      	strb	r0, [r2, #3]
 8001c68:	4a35      	ldr	r2, [pc, #212]	; (8001d40 <main+0x200>)
 8001c6a:	7018      	strb	r0, [r3, #0]
 8001c6c:	6013      	str	r3, [r2, #0]
 8001c6e:	f04f 527a 	mov.w	r2, #1048576000	; 0x3e800000
 8001c72:	7058      	strb	r0, [r3, #1]
 8001c74:	7098      	strb	r0, [r3, #2]
 8001c76:	70d8      	strb	r0, [r3, #3]
 8001c78:	4b32      	ldr	r3, [pc, #200]	; (8001d44 <main+0x204>)
 8001c7a:	4630      	mov	r0, r6
 8001c7c:	601a      	str	r2, [r3, #0]
 8001c7e:	4b32      	ldr	r3, [pc, #200]	; (8001d48 <main+0x208>)
 8001c80:	4a32      	ldr	r2, [pc, #200]	; (8001d4c <main+0x20c>)
 8001c82:	601a      	str	r2, [r3, #0]
 8001c84:	f000 ff23 	bl	8002ace <HAL_IWDG_Refresh>
 8001c88:	f001 fb10 	bl	80032ac <osKernelInitialize>
 8001c8c:	4830      	ldr	r0, [pc, #192]	; (8001d50 <main+0x210>)
 8001c8e:	f001 fce9 	bl	8003664 <osMutexNew>
 8001c92:	4b30      	ldr	r3, [pc, #192]	; (8001d54 <main+0x214>)
 8001c94:	4639      	mov	r1, r7
 8001c96:	6018      	str	r0, [r3, #0]
 8001c98:	4a2f      	ldr	r2, [pc, #188]	; (8001d58 <main+0x218>)
 8001c9a:	4638      	mov	r0, r7
 8001c9c:	f001 fd84 	bl	80037a8 <osSemaphoreNew>
 8001ca0:	4b2e      	ldr	r3, [pc, #184]	; (8001d5c <main+0x21c>)
 8001ca2:	4622      	mov	r2, r4
 8001ca4:	6018      	str	r0, [r3, #0]
 8001ca6:	4629      	mov	r1, r5
 8001ca8:	2004      	movs	r0, #4
 8001caa:	f001 fe49 	bl	8003940 <osMessageQueueNew>
 8001cae:	4b2c      	ldr	r3, [pc, #176]	; (8001d60 <main+0x220>)
 8001cb0:	4621      	mov	r1, r4
 8001cb2:	6018      	str	r0, [r3, #0]
 8001cb4:	4a2b      	ldr	r2, [pc, #172]	; (8001d64 <main+0x224>)
 8001cb6:	482c      	ldr	r0, [pc, #176]	; (8001d68 <main+0x228>)
 8001cb8:	f001 fb98 	bl	80033ec <osThreadNew>
 8001cbc:	4b2b      	ldr	r3, [pc, #172]	; (8001d6c <main+0x22c>)
 8001cbe:	4621      	mov	r1, r4
 8001cc0:	6018      	str	r0, [r3, #0]
 8001cc2:	4a2b      	ldr	r2, [pc, #172]	; (8001d70 <main+0x230>)
 8001cc4:	482b      	ldr	r0, [pc, #172]	; (8001d74 <main+0x234>)
 8001cc6:	f001 fb91 	bl	80033ec <osThreadNew>
 8001cca:	4b2b      	ldr	r3, [pc, #172]	; (8001d78 <main+0x238>)
 8001ccc:	4621      	mov	r1, r4
 8001cce:	6018      	str	r0, [r3, #0]
 8001cd0:	4a2a      	ldr	r2, [pc, #168]	; (8001d7c <main+0x23c>)
 8001cd2:	482b      	ldr	r0, [pc, #172]	; (8001d80 <main+0x240>)
 8001cd4:	f001 fb8a 	bl	80033ec <osThreadNew>
 8001cd8:	4b2a      	ldr	r3, [pc, #168]	; (8001d84 <main+0x244>)
 8001cda:	4621      	mov	r1, r4
 8001cdc:	6018      	str	r0, [r3, #0]
 8001cde:	4a2a      	ldr	r2, [pc, #168]	; (8001d88 <main+0x248>)
 8001ce0:	482a      	ldr	r0, [pc, #168]	; (8001d8c <main+0x24c>)
 8001ce2:	f001 fb83 	bl	80033ec <osThreadNew>
 8001ce6:	4b2a      	ldr	r3, [pc, #168]	; (8001d90 <main+0x250>)
 8001ce8:	4621      	mov	r1, r4
 8001cea:	6018      	str	r0, [r3, #0]
 8001cec:	4a29      	ldr	r2, [pc, #164]	; (8001d94 <main+0x254>)
 8001cee:	482a      	ldr	r0, [pc, #168]	; (8001d98 <main+0x258>)
 8001cf0:	f001 fb7c 	bl	80033ec <osThreadNew>
 8001cf4:	4b29      	ldr	r3, [pc, #164]	; (8001d9c <main+0x25c>)
 8001cf6:	4621      	mov	r1, r4
 8001cf8:	6018      	str	r0, [r3, #0]
 8001cfa:	4a29      	ldr	r2, [pc, #164]	; (8001da0 <main+0x260>)
 8001cfc:	4829      	ldr	r0, [pc, #164]	; (8001da4 <main+0x264>)
 8001cfe:	f001 fb75 	bl	80033ec <osThreadNew>
 8001d02:	4b29      	ldr	r3, [pc, #164]	; (8001da8 <main+0x268>)
 8001d04:	6018      	str	r0, [r3, #0]
 8001d06:	4829      	ldr	r0, [pc, #164]	; (8001dac <main+0x26c>)
 8001d08:	f001 fc08 	bl	800351c <osEventFlagsNew>
 8001d0c:	4b28      	ldr	r3, [pc, #160]	; (8001db0 <main+0x270>)
 8001d0e:	6018      	str	r0, [r3, #0]
 8001d10:	f001 fae8 	bl	80032e4 <osKernelStart>
 8001d14:	e7fe      	b.n	8001d14 <main+0x1d4>
 8001d16:	bf00      	nop
 8001d18:	40021000 	.word	0x40021000
 8001d1c:	40010800 	.word	0x40010800
 8001d20:	40010c00 	.word	0x40010c00
 8001d24:	20000e94 	.word	0x20000e94
 8001d28:	000186a0 	.word	0x000186a0
 8001d2c:	40005400 	.word	0x40005400
 8001d30:	20000ee8 	.word	0x20000ee8
 8001d34:	40003000 	.word	0x40003000
 8001d38:	20000e7c 	.word	0x20000e7c
 8001d3c:	20000e90 	.word	0x20000e90
 8001d40:	20000e78 	.word	0x20000e78
 8001d44:	20000e80 	.word	0x20000e80
 8001d48:	20000e8c 	.word	0x20000e8c
 8001d4c:	3d4ccccd 	.word	0x3d4ccccd
 8001d50:	08005ec8 	.word	0x08005ec8
 8001d54:	20000358 	.word	0x20000358
 8001d58:	08005f44 	.word	0x08005f44
 8001d5c:	20000ba8 	.word	0x20000ba8
 8001d60:	20000354 	.word	0x20000354
 8001d64:	08005f88 	.word	0x08005f88
 8001d68:	080012f5 	.word	0x080012f5
 8001d6c:	20000e74 	.word	0x20000e74
 8001d70:	08005ed8 	.word	0x08005ed8
 8001d74:	08001659 	.word	0x08001659
 8001d78:	2000061c 	.word	0x2000061c
 8001d7c:	08005efc 	.word	0x08005efc
 8001d80:	080014e9 	.word	0x080014e9
 8001d84:	200008e0 	.word	0x200008e0
 8001d88:	08005ea4 	.word	0x08005ea4
 8001d8c:	0800130d 	.word	0x0800130d
 8001d90:	20000350 	.word	0x20000350
 8001d94:	08005f20 	.word	0x08005f20
 8001d98:	080015a1 	.word	0x080015a1
 8001d9c:	20000ba4 	.word	0x20000ba4
 8001da0:	08005f54 	.word	0x08005f54
 8001da4:	08001845 	.word	0x08001845
 8001da8:	20000e6c 	.word	0x20000e6c
 8001dac:	08005f78 	.word	0x08005f78
 8001db0:	20000e70 	.word	0x20000e70

08001db4 <HAL_TIM_PeriodElapsedCallback>:
 8001db4:	6802      	ldr	r2, [r0, #0]
 8001db6:	4b03      	ldr	r3, [pc, #12]	; (8001dc4 <HAL_TIM_PeriodElapsedCallback+0x10>)
 8001db8:	429a      	cmp	r2, r3
 8001dba:	d101      	bne.n	8001dc0 <HAL_TIM_PeriodElapsedCallback+0xc>
 8001dbc:	f000 b8e0 	b.w	8001f80 <HAL_IncTick>
 8001dc0:	4770      	bx	lr
 8001dc2:	bf00      	nop
 8001dc4:	40012c00 	.word	0x40012c00

08001dc8 <HAL_MspInit>:
 8001dc8:	4b11      	ldr	r3, [pc, #68]	; (8001e10 <HAL_MspInit+0x48>)
 8001dca:	b507      	push	{r0, r1, r2, lr}
 8001dcc:	699a      	ldr	r2, [r3, #24]
 8001dce:	210f      	movs	r1, #15
 8001dd0:	f042 0201 	orr.w	r2, r2, #1
 8001dd4:	619a      	str	r2, [r3, #24]
 8001dd6:	699a      	ldr	r2, [r3, #24]
 8001dd8:	f06f 0001 	mvn.w	r0, #1
 8001ddc:	f002 0201 	and.w	r2, r2, #1
 8001de0:	9200      	str	r2, [sp, #0]
 8001de2:	9a00      	ldr	r2, [sp, #0]
 8001de4:	69da      	ldr	r2, [r3, #28]
 8001de6:	f042 5280 	orr.w	r2, r2, #268435456	; 0x10000000
 8001dea:	61da      	str	r2, [r3, #28]
 8001dec:	69db      	ldr	r3, [r3, #28]
 8001dee:	2200      	movs	r2, #0
 8001df0:	f003 5380 	and.w	r3, r3, #268435456	; 0x10000000
 8001df4:	9301      	str	r3, [sp, #4]
 8001df6:	9b01      	ldr	r3, [sp, #4]
 8001df8:	f000 f8f8 	bl	8001fec <HAL_NVIC_SetPriority>
 8001dfc:	4a05      	ldr	r2, [pc, #20]	; (8001e14 <HAL_MspInit+0x4c>)
 8001dfe:	6853      	ldr	r3, [r2, #4]
 8001e00:	f023 63e0 	bic.w	r3, r3, #117440512	; 0x7000000
 8001e04:	f043 7300 	orr.w	r3, r3, #33554432	; 0x2000000
 8001e08:	6053      	str	r3, [r2, #4]
 8001e0a:	b003      	add	sp, #12
 8001e0c:	f85d fb04 	ldr.w	pc, [sp], #4
 8001e10:	40021000 	.word	0x40021000
 8001e14:	40010000 	.word	0x40010000

08001e18 <HAL_I2C_MspInit>:
 8001e18:	b510      	push	{r4, lr}
 8001e1a:	4604      	mov	r4, r0
 8001e1c:	b086      	sub	sp, #24
 8001e1e:	2210      	movs	r2, #16
 8001e20:	2100      	movs	r1, #0
 8001e22:	a802      	add	r0, sp, #8
 8001e24:	f003 ff38 	bl	8005c98 <memset>
 8001e28:	6822      	ldr	r2, [r4, #0]
 8001e2a:	4b11      	ldr	r3, [pc, #68]	; (8001e70 <HAL_I2C_MspInit+0x58>)
 8001e2c:	429a      	cmp	r2, r3
 8001e2e:	d11c      	bne.n	8001e6a <HAL_I2C_MspInit+0x52>
 8001e30:	4c10      	ldr	r4, [pc, #64]	; (8001e74 <HAL_I2C_MspInit+0x5c>)
 8001e32:	22c0      	movs	r2, #192	; 0xc0
 8001e34:	69a3      	ldr	r3, [r4, #24]
 8001e36:	4810      	ldr	r0, [pc, #64]	; (8001e78 <HAL_I2C_MspInit+0x60>)
 8001e38:	f043 0308 	orr.w	r3, r3, #8
 8001e3c:	61a3      	str	r3, [r4, #24]
 8001e3e:	69a3      	ldr	r3, [r4, #24]
 8001e40:	a902      	add	r1, sp, #8
 8001e42:	f003 0308 	and.w	r3, r3, #8
 8001e46:	9300      	str	r3, [sp, #0]
 8001e48:	9b00      	ldr	r3, [sp, #0]
 8001e4a:	2312      	movs	r3, #18
 8001e4c:	e9cd 2302 	strd	r2, r3, [sp, #8]
 8001e50:	2303      	movs	r3, #3
 8001e52:	9305      	str	r3, [sp, #20]
 8001e54:	f000 f90a 	bl	800206c <HAL_GPIO_Init>
 8001e58:	69e3      	ldr	r3, [r4, #28]
 8001e5a:	f443 1300 	orr.w	r3, r3, #2097152	; 0x200000
 8001e5e:	61e3      	str	r3, [r4, #28]
 8001e60:	69e3      	ldr	r3, [r4, #28]
 8001e62:	f403 1300 	and.w	r3, r3, #2097152	; 0x200000
 8001e66:	9301      	str	r3, [sp, #4]
 8001e68:	9b01      	ldr	r3, [sp, #4]
 8001e6a:	b006      	add	sp, #24
 8001e6c:	bd10      	pop	{r4, pc}
 8001e6e:	bf00      	nop
 8001e70:	40005400 	.word	0x40005400
 8001e74:	40021000 	.word	0x40021000
 8001e78:	40010c00 	.word	0x40010c00

08001e7c <HAL_InitTick>:
 8001e7c:	b510      	push	{r4, lr}
 8001e7e:	4601      	mov	r1, r0
 8001e80:	b088      	sub	sp, #32
 8001e82:	2200      	movs	r2, #0
 8001e84:	2019      	movs	r0, #25
 8001e86:	f000 f8b1 	bl	8001fec <HAL_NVIC_SetPriority>
 8001e8a:	2019      	movs	r0, #25
 8001e8c:	f000 f8e0 	bl	8002050 <HAL_NVIC_EnableIRQ>
 8001e90:	4b14      	ldr	r3, [pc, #80]	; (8001ee4 <HAL_InitTick+0x68>)
 8001e92:	a901      	add	r1, sp, #4
 8001e94:	699a      	ldr	r2, [r3, #24]
 8001e96:	a803      	add	r0, sp, #12
 8001e98:	f442 6200 	orr.w	r2, r2, #2048	; 0x800
 8001e9c:	619a      	str	r2, [r3, #24]
 8001e9e:	699b      	ldr	r3, [r3, #24]
 8001ea0:	4c11      	ldr	r4, [pc, #68]	; (8001ee8 <HAL_InitTick+0x6c>)
 8001ea2:	f403 6300 	and.w	r3, r3, #2048	; 0x800
 8001ea6:	9302      	str	r3, [sp, #8]
 8001ea8:	9b02      	ldr	r3, [sp, #8]
 8001eaa:	f001 f8a9 	bl	8003000 <HAL_RCC_GetClockConfig>
 8001eae:	f001 f897 	bl	8002fe0 <HAL_RCC_GetPCLK2Freq>
 8001eb2:	4b0e      	ldr	r3, [pc, #56]	; (8001eec <HAL_InitTick+0x70>)
 8001eb4:	6023      	str	r3, [r4, #0]
 8001eb6:	f240 33e7 	movw	r3, #999	; 0x3e7
 8001eba:	60e3      	str	r3, [r4, #12]
 8001ebc:	4b0c      	ldr	r3, [pc, #48]	; (8001ef0 <HAL_InitTick+0x74>)
 8001ebe:	fbb0 f0f3 	udiv	r0, r0, r3
 8001ec2:	2300      	movs	r3, #0
 8001ec4:	3801      	subs	r0, #1
 8001ec6:	6060      	str	r0, [r4, #4]
 8001ec8:	4620      	mov	r0, r4
 8001eca:	6123      	str	r3, [r4, #16]
 8001ecc:	60a3      	str	r3, [r4, #8]
 8001ece:	f001 f9bf 	bl	8003250 <HAL_TIM_Base_Init>
 8001ed2:	b920      	cbnz	r0, 8001ede <HAL_InitTick+0x62>
 8001ed4:	4620      	mov	r0, r4
 8001ed6:	f001 f8b3 	bl	8003040 <HAL_TIM_Base_Start_IT>
 8001eda:	b008      	add	sp, #32
 8001edc:	bd10      	pop	{r4, pc}
 8001ede:	2001      	movs	r0, #1
 8001ee0:	e7fb      	b.n	8001eda <HAL_InitTick+0x5e>
 8001ee2:	bf00      	nop
 8001ee4:	40021000 	.word	0x40021000
 8001ee8:	20000efc 	.word	0x20000efc
 8001eec:	40012c00 	.word	0x40012c00
 8001ef0:	000f4240 	.word	0x000f4240

08001ef4 <NMI_Handler>:
 8001ef4:	e7fe      	b.n	8001ef4 <NMI_Handler>

08001ef6 <HardFault_Handler>:
 8001ef6:	e7fe      	b.n	8001ef6 <HardFault_Handler>

08001ef8 <MemManage_Handler>:
 8001ef8:	e7fe      	b.n	8001ef8 <MemManage_Handler>

08001efa <BusFault_Handler>:
 8001efa:	e7fe      	b.n	8001efa <BusFault_Handler>

08001efc <UsageFault_Handler>:
 8001efc:	e7fe      	b.n	8001efc <UsageFault_Handler>

08001efe <DebugMon_Handler>:
 8001efe:	4770      	bx	lr

08001f00 <TIM1_UP_IRQHandler>:
 8001f00:	4801      	ldr	r0, [pc, #4]	; (8001f08 <TIM1_UP_IRQHandler+0x8>)
 8001f02:	f001 b8cb 	b.w	800309c <HAL_TIM_IRQHandler>
 8001f06:	bf00      	nop
 8001f08:	20000efc 	.word	0x20000efc

08001f0c <SystemInit>:
 8001f0c:	4770      	bx	lr
	...

08001f10 <Reset_Handler>:
 8001f10:	480c      	ldr	r0, [pc, #48]	; (8001f44 <LoopFillZerobss+0x12>)
 8001f12:	490d      	ldr	r1, [pc, #52]	; (8001f48 <LoopFillZerobss+0x16>)
 8001f14:	4a0d      	ldr	r2, [pc, #52]	; (8001f4c <LoopFillZerobss+0x1a>)
 8001f16:	2300      	movs	r3, #0
 8001f18:	e002      	b.n	8001f20 <LoopCopyDataInit>

08001f1a <CopyDataInit>:
 8001f1a:	58d4      	ldr	r4, [r2, r3]
 8001f1c:	50c4      	str	r4, [r0, r3]
 8001f1e:	3304      	adds	r3, #4

08001f20 <LoopCopyDataInit>:
 8001f20:	18c4      	adds	r4, r0, r3
 8001f22:	428c      	cmp	r4, r1
 8001f24:	d3f9      	bcc.n	8001f1a <CopyDataInit>
 8001f26:	4a0a      	ldr	r2, [pc, #40]	; (8001f50 <LoopFillZerobss+0x1e>)
 8001f28:	4c0a      	ldr	r4, [pc, #40]	; (8001f54 <LoopFillZerobss+0x22>)
 8001f2a:	2300      	movs	r3, #0
 8001f2c:	e001      	b.n	8001f32 <LoopFillZerobss>

08001f2e <FillZerobss>:
 8001f2e:	6013      	str	r3, [r2, #0]
 8001f30:	3204      	adds	r2, #4

08001f32 <LoopFillZerobss>:
 8001f32:	42a2      	cmp	r2, r4
 8001f34:	d3fb      	bcc.n	8001f2e <FillZerobss>
 8001f36:	f7ff ffe9 	bl	8001f0c <SystemInit>
 8001f3a:	f003 fe79 	bl	8005c30 <__libc_init_array>
 8001f3e:	f7ff fdff 	bl	8001b40 <main>
 8001f42:	4770      	bx	lr
 8001f44:	20000000 	.word	0x20000000
 8001f48:	20000074 	.word	0x20000074
 8001f4c:	08006050 	.word	0x08006050
 8001f50:	20000074 	.word	0x20000074
 8001f54:	200030e4 	.word	0x200030e4

08001f58 <ADC1_2_IRQHandler>:
 8001f58:	e7fe      	b.n	8001f58 <ADC1_2_IRQHandler>
	...

08001f5c <HAL_Init>:
 8001f5c:	4a07      	ldr	r2, [pc, #28]	; (8001f7c <HAL_Init+0x20>)
 8001f5e:	b508      	push	{r3, lr}
 8001f60:	6813      	ldr	r3, [r2, #0]
 8001f62:	2003      	movs	r0, #3
 8001f64:	f043 0310 	orr.w	r3, r3, #16
 8001f68:	6013      	str	r3, [r2, #0]
 8001f6a:	f000 f82d 	bl	8001fc8 <HAL_NVIC_SetPriorityGrouping>
 8001f6e:	200f      	movs	r0, #15
 8001f70:	f7ff ff84 	bl	8001e7c <HAL_InitTick>
 8001f74:	f7ff ff28 	bl	8001dc8 <HAL_MspInit>
 8001f78:	2000      	movs	r0, #0
 8001f7a:	bd08      	pop	{r3, pc}
 8001f7c:	40022000 	.word	0x40022000

08001f80 <HAL_IncTick>:
 8001f80:	4a03      	ldr	r2, [pc, #12]	; (8001f90 <HAL_IncTick+0x10>)
 8001f82:	4b04      	ldr	r3, [pc, #16]	; (8001f94 <HAL_IncTick+0x14>)
 8001f84:	6811      	ldr	r1, [r2, #0]
 8001f86:	781b      	ldrb	r3, [r3, #0]
 8001f88:	440b      	add	r3, r1
 8001f8a:	6013      	str	r3, [r2, #0]
 8001f8c:	4770      	bx	lr
 8001f8e:	bf00      	nop
 8001f90:	20000f44 	.word	0x20000f44
 8001f94:	20000004 	.word	0x20000004

08001f98 <HAL_GetTick>:
 8001f98:	4b01      	ldr	r3, [pc, #4]	; (8001fa0 <HAL_GetTick+0x8>)
 8001f9a:	6818      	ldr	r0, [r3, #0]
 8001f9c:	4770      	bx	lr
 8001f9e:	bf00      	nop
 8001fa0:	20000f44 	.word	0x20000f44

08001fa4 <HAL_Delay>:
 8001fa4:	b538      	push	{r3, r4, r5, lr}
 8001fa6:	4604      	mov	r4, r0
 8001fa8:	f7ff fff6 	bl	8001f98 <HAL_GetTick>
 8001fac:	4605      	mov	r5, r0
 8001fae:	1c63      	adds	r3, r4, #1
 8001fb0:	bf1e      	ittt	ne
 8001fb2:	4b04      	ldrne	r3, [pc, #16]	; (8001fc4 <HAL_Delay+0x20>)
 8001fb4:	781b      	ldrbne	r3, [r3, #0]
 8001fb6:	18e4      	addne	r4, r4, r3
 8001fb8:	f7ff ffee 	bl	8001f98 <HAL_GetTick>
 8001fbc:	1b43      	subs	r3, r0, r5
 8001fbe:	42a3      	cmp	r3, r4
 8001fc0:	d3fa      	bcc.n	8001fb8 <HAL_Delay+0x14>
 8001fc2:	bd38      	pop	{r3, r4, r5, pc}
 8001fc4:	20000004 	.word	0x20000004

08001fc8 <HAL_NVIC_SetPriorityGrouping>:
 8001fc8:	4907      	ldr	r1, [pc, #28]	; (8001fe8 <HAL_NVIC_SetPriorityGrouping+0x20>)
 8001fca:	0203      	lsls	r3, r0, #8
 8001fcc:	68ca      	ldr	r2, [r1, #12]
 8001fce:	f403 63e0 	and.w	r3, r3, #1792	; 0x700
 8001fd2:	f422 62e0 	bic.w	r2, r2, #1792	; 0x700
 8001fd6:	0412      	lsls	r2, r2, #16
 8001fd8:	0c12      	lsrs	r2, r2, #16
 8001fda:	4313      	orrs	r3, r2
 8001fdc:	f043 63bf 	orr.w	r3, r3, #100139008	; 0x5f80000
 8001fe0:	f443 3300 	orr.w	r3, r3, #131072	; 0x20000
 8001fe4:	60cb      	str	r3, [r1, #12]
 8001fe6:	4770      	bx	lr
 8001fe8:	e000ed00 	.word	0xe000ed00

08001fec <HAL_NVIC_SetPriority>:
 8001fec:	4b16      	ldr	r3, [pc, #88]	; (8002048 <HAL_NVIC_SetPriority+0x5c>)
 8001fee:	b530      	push	{r4, r5, lr}
 8001ff0:	68dc      	ldr	r4, [r3, #12]
 8001ff2:	f3c4 2402 	ubfx	r4, r4, #8, #3
 8001ff6:	f1c4 0307 	rsb	r3, r4, #7
 8001ffa:	1d25      	adds	r5, r4, #4
 8001ffc:	2b04      	cmp	r3, #4
 8001ffe:	bf28      	it	cs
 8002000:	2304      	movcs	r3, #4
 8002002:	2d06      	cmp	r5, #6
 8002004:	f04f 35ff 	mov.w	r5, #4294967295
 8002008:	bf98      	it	ls
 800200a:	2400      	movls	r4, #0
 800200c:	fa05 f303 	lsl.w	r3, r5, r3
 8002010:	bf88      	it	hi
 8002012:	3c03      	subhi	r4, #3
 8002014:	ea21 0303 	bic.w	r3, r1, r3
 8002018:	40a3      	lsls	r3, r4
 800201a:	fa05 f404 	lsl.w	r4, r5, r4
 800201e:	ea22 0204 	bic.w	r2, r2, r4
 8002022:	2800      	cmp	r0, #0
 8002024:	ea43 0302 	orr.w	r3, r3, r2
 8002028:	bfac      	ite	ge
 800202a:	f100 4060 	addge.w	r0, r0, #3758096384	; 0xe0000000
 800202e:	4a07      	ldrlt	r2, [pc, #28]	; (800204c <HAL_NVIC_SetPriority+0x60>)
 8002030:	ea4f 1303 	mov.w	r3, r3, lsl #4
 8002034:	b2db      	uxtb	r3, r3
 8002036:	bfab      	itete	ge
 8002038:	f500 4061 	addge.w	r0, r0, #57600	; 0xe100
 800203c:	f000 000f 	andlt.w	r0, r0, #15
 8002040:	f880 3300 	strbge.w	r3, [r0, #768]	; 0x300
 8002044:	5413      	strblt	r3, [r2, r0]
 8002046:	bd30      	pop	{r4, r5, pc}
 8002048:	e000ed00 	.word	0xe000ed00
 800204c:	e000ed14 	.word	0xe000ed14

08002050 <HAL_NVIC_EnableIRQ>:
 8002050:	2800      	cmp	r0, #0
 8002052:	db08      	blt.n	8002066 <HAL_NVIC_EnableIRQ+0x16>
 8002054:	2301      	movs	r3, #1
 8002056:	0942      	lsrs	r2, r0, #5
 8002058:	f000 001f 	and.w	r0, r0, #31
 800205c:	fa03 f000 	lsl.w	r0, r3, r0
 8002060:	4b01      	ldr	r3, [pc, #4]	; (8002068 <HAL_NVIC_EnableIRQ+0x18>)
 8002062:	f843 0022 	str.w	r0, [r3, r2, lsl #2]
 8002066:	4770      	bx	lr
 8002068:	e000e100 	.word	0xe000e100

0800206c <HAL_GPIO_Init>:
 800206c:	e92d 4ff7 	stmdb	sp!, {r0, r1, r2, r4, r5, r6, r7, r8, r9, sl, fp, lr}
 8002070:	2200      	movs	r2, #0
 8002072:	4616      	mov	r6, r2
 8002074:	4f64      	ldr	r7, [pc, #400]	; (8002208 <HAL_GPIO_Init+0x19c>)
 8002076:	4b65      	ldr	r3, [pc, #404]	; (800220c <HAL_GPIO_Init+0x1a0>)
 8002078:	f8df c194 	ldr.w	ip, [pc, #404]	; 8002210 <HAL_GPIO_Init+0x1a4>
 800207c:	f8df e194 	ldr.w	lr, [pc, #404]	; 8002214 <HAL_GPIO_Init+0x1a8>
 8002080:	680d      	ldr	r5, [r1, #0]
 8002082:	fa35 f406 	lsrs.w	r4, r5, r6
 8002086:	d102      	bne.n	800208e <HAL_GPIO_Init+0x22>
 8002088:	b003      	add	sp, #12
 800208a:	e8bd 8ff0 	ldmia.w	sp!, {r4, r5, r6, r7, r8, r9, sl, fp, pc}
 800208e:	f04f 0801 	mov.w	r8, #1
 8002092:	fa08 f806 	lsl.w	r8, r8, r6
 8002096:	ea05 0408 	and.w	r4, r5, r8
 800209a:	ea38 0505 	bics.w	r5, r8, r5
 800209e:	d17b      	bne.n	8002198 <HAL_GPIO_Init+0x12c>
 80020a0:	684d      	ldr	r5, [r1, #4]
 80020a2:	2d03      	cmp	r5, #3
 80020a4:	d807      	bhi.n	80020b6 <HAL_GPIO_Init+0x4a>
 80020a6:	3d01      	subs	r5, #1
 80020a8:	2d02      	cmp	r5, #2
 80020aa:	f200 8088 	bhi.w	80021be <HAL_GPIO_Init+0x152>
 80020ae:	e8df f005 	tbb	[pc, r5]
 80020b2:	9b96      	.short	0x9b96
 80020b4:	a1          	.byte	0xa1
 80020b5:	00          	.byte	0x00
 80020b6:	2d12      	cmp	r5, #18
 80020b8:	f000 8099 	beq.w	80021ee <HAL_GPIO_Init+0x182>
 80020bc:	d86e      	bhi.n	800219c <HAL_GPIO_Init+0x130>
 80020be:	2d11      	cmp	r5, #17
 80020c0:	f000 808f 	beq.w	80021e2 <HAL_GPIO_Init+0x176>
 80020c4:	2cff      	cmp	r4, #255	; 0xff
 80020c6:	bf98      	it	ls
 80020c8:	4682      	movls	sl, r0
 80020ca:	f04f 090f 	mov.w	r9, #15
 80020ce:	bf88      	it	hi
 80020d0:	f100 0a04 	addhi.w	sl, r0, #4
 80020d4:	ea4f 0586 	mov.w	r5, r6, lsl #2
 80020d8:	f8da 8000 	ldr.w	r8, [sl]
 80020dc:	bf88      	it	hi
 80020de:	3d20      	subhi	r5, #32
 80020e0:	fa09 fb05 	lsl.w	fp, r9, r5
 80020e4:	ea28 080b 	bic.w	r8, r8, fp
 80020e8:	fa02 f505 	lsl.w	r5, r2, r5
 80020ec:	ea48 0505 	orr.w	r5, r8, r5
 80020f0:	f8ca 5000 	str.w	r5, [sl]
 80020f4:	f8d1 a004 	ldr.w	sl, [r1, #4]
 80020f8:	f01a 5f80 	tst.w	sl, #268435456	; 0x10000000
 80020fc:	d04c      	beq.n	8002198 <HAL_GPIO_Init+0x12c>
 80020fe:	69bd      	ldr	r5, [r7, #24]
 8002100:	f026 0803 	bic.w	r8, r6, #3
 8002104:	f045 0501 	orr.w	r5, r5, #1
 8002108:	61bd      	str	r5, [r7, #24]
 800210a:	69bd      	ldr	r5, [r7, #24]
 800210c:	f108 4880 	add.w	r8, r8, #1073741824	; 0x40000000
 8002110:	f005 0501 	and.w	r5, r5, #1
 8002114:	9501      	str	r5, [sp, #4]
 8002116:	f508 3880 	add.w	r8, r8, #65536	; 0x10000
 800211a:	f006 0b03 	and.w	fp, r6, #3
 800211e:	9d01      	ldr	r5, [sp, #4]
 8002120:	ea4f 0b8b 	mov.w	fp, fp, lsl #2
 8002124:	f8d8 5008 	ldr.w	r5, [r8, #8]
 8002128:	fa09 f90b 	lsl.w	r9, r9, fp
 800212c:	ea25 0909 	bic.w	r9, r5, r9
 8002130:	4d39      	ldr	r5, [pc, #228]	; (8002218 <HAL_GPIO_Init+0x1ac>)
 8002132:	42a8      	cmp	r0, r5
 8002134:	d062      	beq.n	80021fc <HAL_GPIO_Init+0x190>
 8002136:	f505 6580 	add.w	r5, r5, #1024	; 0x400
 800213a:	42a8      	cmp	r0, r5
 800213c:	d060      	beq.n	8002200 <HAL_GPIO_Init+0x194>
 800213e:	f505 6580 	add.w	r5, r5, #1024	; 0x400
 8002142:	42a8      	cmp	r0, r5
 8002144:	d05e      	beq.n	8002204 <HAL_GPIO_Init+0x198>
 8002146:	f505 6580 	add.w	r5, r5, #1024	; 0x400
 800214a:	42a8      	cmp	r0, r5
 800214c:	bf0c      	ite	eq
 800214e:	2503      	moveq	r5, #3
 8002150:	2504      	movne	r5, #4
 8002152:	fa05 f50b 	lsl.w	r5, r5, fp
 8002156:	ea45 0509 	orr.w	r5, r5, r9
 800215a:	f8c8 5008 	str.w	r5, [r8, #8]
 800215e:	681d      	ldr	r5, [r3, #0]
 8002160:	f41a 3f80 	tst.w	sl, #65536	; 0x10000
 8002164:	bf14      	ite	ne
 8002166:	4325      	orrne	r5, r4
 8002168:	43a5      	biceq	r5, r4
 800216a:	601d      	str	r5, [r3, #0]
 800216c:	685d      	ldr	r5, [r3, #4]
 800216e:	f41a 3f00 	tst.w	sl, #131072	; 0x20000
 8002172:	bf14      	ite	ne
 8002174:	4325      	orrne	r5, r4
 8002176:	43a5      	biceq	r5, r4
 8002178:	605d      	str	r5, [r3, #4]
 800217a:	689d      	ldr	r5, [r3, #8]
 800217c:	f41a 1f80 	tst.w	sl, #1048576	; 0x100000
 8002180:	bf14      	ite	ne
 8002182:	4325      	orrne	r5, r4
 8002184:	43a5      	biceq	r5, r4
 8002186:	609d      	str	r5, [r3, #8]
 8002188:	68dd      	ldr	r5, [r3, #12]
 800218a:	f41a 1f00 	tst.w	sl, #2097152	; 0x200000
 800218e:	bf14      	ite	ne
 8002190:	432c      	orrne	r4, r5
 8002192:	ea25 0404 	biceq.w	r4, r5, r4
 8002196:	60dc      	str	r4, [r3, #12]
 8002198:	3601      	adds	r6, #1
 800219a:	e771      	b.n	8002080 <HAL_GPIO_Init+0x14>
 800219c:	f8df 907c 	ldr.w	r9, [pc, #124]	; 800221c <HAL_GPIO_Init+0x1b0>
 80021a0:	454d      	cmp	r5, r9
 80021a2:	d00c      	beq.n	80021be <HAL_GPIO_Init+0x152>
 80021a4:	d817      	bhi.n	80021d6 <HAL_GPIO_Init+0x16a>
 80021a6:	f5a9 1980 	sub.w	r9, r9, #1048576	; 0x100000
 80021aa:	454d      	cmp	r5, r9
 80021ac:	d007      	beq.n	80021be <HAL_GPIO_Init+0x152>
 80021ae:	f509 2970 	add.w	r9, r9, #983040	; 0xf0000
 80021b2:	454d      	cmp	r5, r9
 80021b4:	d003      	beq.n	80021be <HAL_GPIO_Init+0x152>
 80021b6:	f5a9 1980 	sub.w	r9, r9, #1048576	; 0x100000
 80021ba:	454d      	cmp	r5, r9
 80021bc:	d182      	bne.n	80020c4 <HAL_GPIO_Init+0x58>
 80021be:	688a      	ldr	r2, [r1, #8]
 80021c0:	b1d2      	cbz	r2, 80021f8 <HAL_GPIO_Init+0x18c>
 80021c2:	2a01      	cmp	r2, #1
 80021c4:	bf08      	it	eq
 80021c6:	f8c0 8010 	streq.w	r8, [r0, #16]
 80021ca:	f04f 0208 	mov.w	r2, #8
 80021ce:	bf18      	it	ne
 80021d0:	f8c0 8014 	strne.w	r8, [r0, #20]
 80021d4:	e776      	b.n	80020c4 <HAL_GPIO_Init+0x58>
 80021d6:	4565      	cmp	r5, ip
 80021d8:	d0f1      	beq.n	80021be <HAL_GPIO_Init+0x152>
 80021da:	4575      	cmp	r5, lr
 80021dc:	e7ee      	b.n	80021bc <HAL_GPIO_Init+0x150>
 80021de:	68ca      	ldr	r2, [r1, #12]
 80021e0:	e770      	b.n	80020c4 <HAL_GPIO_Init+0x58>
 80021e2:	68ca      	ldr	r2, [r1, #12]
 80021e4:	3204      	adds	r2, #4
 80021e6:	e76d      	b.n	80020c4 <HAL_GPIO_Init+0x58>
 80021e8:	68ca      	ldr	r2, [r1, #12]
 80021ea:	3208      	adds	r2, #8
 80021ec:	e76a      	b.n	80020c4 <HAL_GPIO_Init+0x58>
 80021ee:	68ca      	ldr	r2, [r1, #12]
 80021f0:	320c      	adds	r2, #12
 80021f2:	e767      	b.n	80020c4 <HAL_GPIO_Init+0x58>
 80021f4:	2200      	movs	r2, #0
 80021f6:	e765      	b.n	80020c4 <HAL_GPIO_Init+0x58>
 80021f8:	2204      	movs	r2, #4
 80021fa:	e763      	b.n	80020c4 <HAL_GPIO_Init+0x58>
 80021fc:	2500      	movs	r5, #0
 80021fe:	e7a8      	b.n	8002152 <HAL_GPIO_Init+0xe6>
 8002200:	2501      	movs	r5, #1
 8002202:	e7a6      	b.n	8002152 <HAL_GPIO_Init+0xe6>
 8002204:	2502      	movs	r5, #2
 8002206:	e7a4      	b.n	8002152 <HAL_GPIO_Init+0xe6>
 8002208:	40021000 	.word	0x40021000
 800220c:	40010400 	.word	0x40010400
 8002210:	10310000 	.word	0x10310000
 8002214:	10320000 	.word	0x10320000
 8002218:	40010800 	.word	0x40010800
 800221c:	10220000 	.word	0x10220000

08002220 <HAL_GPIO_ReadPin>:
 8002220:	6883      	ldr	r3, [r0, #8]
 8002222:	4219      	tst	r1, r3
 8002224:	bf14      	ite	ne
 8002226:	2001      	movne	r0, #1
 8002228:	2000      	moveq	r0, #0
 800222a:	4770      	bx	lr

0800222c <HAL_GPIO_WritePin>:
 800222c:	b10a      	cbz	r2, 8002232 <HAL_GPIO_WritePin+0x6>
 800222e:	6101      	str	r1, [r0, #16]
 8002230:	4770      	bx	lr
 8002232:	0409      	lsls	r1, r1, #16
 8002234:	e7fb      	b.n	800222e <HAL_GPIO_WritePin+0x2>

08002236 <I2C_IsAcknowledgeFailed>:
 8002236:	6801      	ldr	r1, [r0, #0]
 8002238:	2200      	movs	r2, #0
 800223a:	694b      	ldr	r3, [r1, #20]
 800223c:	f413 6380 	ands.w	r3, r3, #1024	; 0x400
 8002240:	d010      	beq.n	8002264 <I2C_IsAcknowledgeFailed+0x2e>
 8002242:	f46f 6380 	mvn.w	r3, #1024	; 0x400
 8002246:	614b      	str	r3, [r1, #20]
 8002248:	2320      	movs	r3, #32
 800224a:	6302      	str	r2, [r0, #48]	; 0x30
 800224c:	f880 303d 	strb.w	r3, [r0, #61]	; 0x3d
 8002250:	f880 203e 	strb.w	r2, [r0, #62]	; 0x3e
 8002254:	6c03      	ldr	r3, [r0, #64]	; 0x40
 8002256:	f880 203c 	strb.w	r2, [r0, #60]	; 0x3c
 800225a:	f043 0304 	orr.w	r3, r3, #4
 800225e:	6403      	str	r3, [r0, #64]	; 0x40
 8002260:	2001      	movs	r0, #1
 8002262:	4770      	bx	lr
 8002264:	4618      	mov	r0, r3
 8002266:	4770      	bx	lr

08002268 <I2C_WaitOnFlagUntilTimeout>:
 8002268:	e92d 46f8 	stmdb	sp!, {r3, r4, r5, r6, r7, r9, sl, lr}
 800226c:	4606      	mov	r6, r0
 800226e:	460f      	mov	r7, r1
 8002270:	4691      	mov	r9, r2
 8002272:	461d      	mov	r5, r3
 8002274:	ea4f 4a11 	mov.w	sl, r1, lsr #16
 8002278:	6833      	ldr	r3, [r6, #0]
 800227a:	f1ba 0f01 	cmp.w	sl, #1
 800227e:	bf0c      	ite	eq
 8002280:	695c      	ldreq	r4, [r3, #20]
 8002282:	699c      	ldrne	r4, [r3, #24]
 8002284:	ea27 0404 	bic.w	r4, r7, r4
 8002288:	b2a4      	uxth	r4, r4
 800228a:	fab4 f484 	clz	r4, r4
 800228e:	0964      	lsrs	r4, r4, #5
 8002290:	45a1      	cmp	r9, r4
 8002292:	d001      	beq.n	8002298 <I2C_WaitOnFlagUntilTimeout+0x30>
 8002294:	2000      	movs	r0, #0
 8002296:	e017      	b.n	80022c8 <I2C_WaitOnFlagUntilTimeout+0x60>
 8002298:	1c6a      	adds	r2, r5, #1
 800229a:	d0ee      	beq.n	800227a <I2C_WaitOnFlagUntilTimeout+0x12>
 800229c:	f7ff fe7c 	bl	8001f98 <HAL_GetTick>
 80022a0:	9b08      	ldr	r3, [sp, #32]
 80022a2:	1ac0      	subs	r0, r0, r3
 80022a4:	42a8      	cmp	r0, r5
 80022a6:	d801      	bhi.n	80022ac <I2C_WaitOnFlagUntilTimeout+0x44>
 80022a8:	2d00      	cmp	r5, #0
 80022aa:	d1e5      	bne.n	8002278 <I2C_WaitOnFlagUntilTimeout+0x10>
 80022ac:	2300      	movs	r3, #0
 80022ae:	2220      	movs	r2, #32
 80022b0:	2001      	movs	r0, #1
 80022b2:	6333      	str	r3, [r6, #48]	; 0x30
 80022b4:	f886 203d 	strb.w	r2, [r6, #61]	; 0x3d
 80022b8:	f886 303e 	strb.w	r3, [r6, #62]	; 0x3e
 80022bc:	6c32      	ldr	r2, [r6, #64]	; 0x40
 80022be:	f886 303c 	strb.w	r3, [r6, #60]	; 0x3c
 80022c2:	f042 0220 	orr.w	r2, r2, #32
 80022c6:	6432      	str	r2, [r6, #64]	; 0x40
 80022c8:	e8bd 86f8 	ldmia.w	sp!, {r3, r4, r5, r6, r7, r9, sl, pc}

080022cc <I2C_WaitOnMasterAddressFlagUntilTimeout>:
 80022cc:	e92d 41f0 	stmdb	sp!, {r4, r5, r6, r7, r8, lr}
 80022d0:	4604      	mov	r4, r0
 80022d2:	460f      	mov	r7, r1
 80022d4:	4616      	mov	r6, r2
 80022d6:	4698      	mov	r8, r3
 80022d8:	6825      	ldr	r5, [r4, #0]
 80022da:	6968      	ldr	r0, [r5, #20]
 80022dc:	ea27 0000 	bic.w	r0, r7, r0
 80022e0:	b280      	uxth	r0, r0
 80022e2:	b1b8      	cbz	r0, 8002314 <I2C_WaitOnMasterAddressFlagUntilTimeout+0x48>
 80022e4:	696b      	ldr	r3, [r5, #20]
 80022e6:	055a      	lsls	r2, r3, #21
 80022e8:	d516      	bpl.n	8002318 <I2C_WaitOnMasterAddressFlagUntilTimeout+0x4c>
 80022ea:	682b      	ldr	r3, [r5, #0]
 80022ec:	2220      	movs	r2, #32
 80022ee:	f443 7300 	orr.w	r3, r3, #512	; 0x200
 80022f2:	602b      	str	r3, [r5, #0]
 80022f4:	f46f 6380 	mvn.w	r3, #1024	; 0x400
 80022f8:	616b      	str	r3, [r5, #20]
 80022fa:	2300      	movs	r3, #0
 80022fc:	6323      	str	r3, [r4, #48]	; 0x30
 80022fe:	f884 203d 	strb.w	r2, [r4, #61]	; 0x3d
 8002302:	f884 303e 	strb.w	r3, [r4, #62]	; 0x3e
 8002306:	6c22      	ldr	r2, [r4, #64]	; 0x40
 8002308:	f042 0204 	orr.w	r2, r2, #4
 800230c:	2001      	movs	r0, #1
 800230e:	6422      	str	r2, [r4, #64]	; 0x40
 8002310:	f884 303c 	strb.w	r3, [r4, #60]	; 0x3c
 8002314:	e8bd 81f0 	ldmia.w	sp!, {r4, r5, r6, r7, r8, pc}
 8002318:	1c73      	adds	r3, r6, #1
 800231a:	d0de      	beq.n	80022da <I2C_WaitOnMasterAddressFlagUntilTimeout+0xe>
 800231c:	f7ff fe3c 	bl	8001f98 <HAL_GetTick>
 8002320:	eba0 0008 	sub.w	r0, r0, r8
 8002324:	42b0      	cmp	r0, r6
 8002326:	d801      	bhi.n	800232c <I2C_WaitOnMasterAddressFlagUntilTimeout+0x60>
 8002328:	2e00      	cmp	r6, #0
 800232a:	d1d5      	bne.n	80022d8 <I2C_WaitOnMasterAddressFlagUntilTimeout+0xc>
 800232c:	2300      	movs	r3, #0
 800232e:	2220      	movs	r2, #32
 8002330:	6323      	str	r3, [r4, #48]	; 0x30
 8002332:	f884 203d 	strb.w	r2, [r4, #61]	; 0x3d
 8002336:	f884 303e 	strb.w	r3, [r4, #62]	; 0x3e
 800233a:	6c22      	ldr	r2, [r4, #64]	; 0x40
 800233c:	f042 0220 	orr.w	r2, r2, #32
 8002340:	e7e4      	b.n	800230c <I2C_WaitOnMasterAddressFlagUntilTimeout+0x40>

08002342 <I2C_WaitOnRXNEFlagUntilTimeout>:
 8002342:	b570      	push	{r4, r5, r6, lr}
 8002344:	4604      	mov	r4, r0
 8002346:	460d      	mov	r5, r1
 8002348:	4616      	mov	r6, r2
 800234a:	6821      	ldr	r1, [r4, #0]
 800234c:	694b      	ldr	r3, [r1, #20]
 800234e:	f013 0340 	ands.w	r3, r3, #64	; 0x40
 8002352:	d001      	beq.n	8002358 <I2C_WaitOnRXNEFlagUntilTimeout+0x16>
 8002354:	2000      	movs	r0, #0
 8002356:	e010      	b.n	800237a <I2C_WaitOnRXNEFlagUntilTimeout+0x38>
 8002358:	694a      	ldr	r2, [r1, #20]
 800235a:	06d2      	lsls	r2, r2, #27
 800235c:	d50e      	bpl.n	800237c <I2C_WaitOnRXNEFlagUntilTimeout+0x3a>
 800235e:	f06f 0210 	mvn.w	r2, #16
 8002362:	614a      	str	r2, [r1, #20]
 8002364:	2220      	movs	r2, #32
 8002366:	6323      	str	r3, [r4, #48]	; 0x30
 8002368:	f884 203d 	strb.w	r2, [r4, #61]	; 0x3d
 800236c:	f884 303e 	strb.w	r3, [r4, #62]	; 0x3e
 8002370:	6c22      	ldr	r2, [r4, #64]	; 0x40
 8002372:	2001      	movs	r0, #1
 8002374:	6422      	str	r2, [r4, #64]	; 0x40
 8002376:	f884 303c 	strb.w	r3, [r4, #60]	; 0x3c
 800237a:	bd70      	pop	{r4, r5, r6, pc}
 800237c:	f7ff fe0c 	bl	8001f98 <HAL_GetTick>
 8002380:	1b80      	subs	r0, r0, r6
 8002382:	42a8      	cmp	r0, r5
 8002384:	d801      	bhi.n	800238a <I2C_WaitOnRXNEFlagUntilTimeout+0x48>
 8002386:	2d00      	cmp	r5, #0
 8002388:	d1df      	bne.n	800234a <I2C_WaitOnRXNEFlagUntilTimeout+0x8>
 800238a:	2300      	movs	r3, #0
 800238c:	2220      	movs	r2, #32
 800238e:	6323      	str	r3, [r4, #48]	; 0x30
 8002390:	f884 203d 	strb.w	r2, [r4, #61]	; 0x3d
 8002394:	f884 303e 	strb.w	r3, [r4, #62]	; 0x3e
 8002398:	6c22      	ldr	r2, [r4, #64]	; 0x40
 800239a:	f042 0220 	orr.w	r2, r2, #32
 800239e:	e7e8      	b.n	8002372 <I2C_WaitOnRXNEFlagUntilTimeout+0x30>

080023a0 <I2C_WaitOnBTFFlagUntilTimeout>:
 80023a0:	b570      	push	{r4, r5, r6, lr}
 80023a2:	4604      	mov	r4, r0
 80023a4:	460d      	mov	r5, r1
 80023a6:	4616      	mov	r6, r2
 80023a8:	6823      	ldr	r3, [r4, #0]
 80023aa:	695b      	ldr	r3, [r3, #20]
 80023ac:	075b      	lsls	r3, r3, #29
 80023ae:	d501      	bpl.n	80023b4 <I2C_WaitOnBTFFlagUntilTimeout+0x14>
 80023b0:	2000      	movs	r0, #0
 80023b2:	bd70      	pop	{r4, r5, r6, pc}
 80023b4:	4620      	mov	r0, r4
 80023b6:	f7ff ff3e 	bl	8002236 <I2C_IsAcknowledgeFailed>
 80023ba:	b9a8      	cbnz	r0, 80023e8 <I2C_WaitOnBTFFlagUntilTimeout+0x48>
 80023bc:	1c6a      	adds	r2, r5, #1
 80023be:	d0f3      	beq.n	80023a8 <I2C_WaitOnBTFFlagUntilTimeout+0x8>
 80023c0:	f7ff fdea 	bl	8001f98 <HAL_GetTick>
 80023c4:	1b80      	subs	r0, r0, r6
 80023c6:	42a8      	cmp	r0, r5
 80023c8:	d801      	bhi.n	80023ce <I2C_WaitOnBTFFlagUntilTimeout+0x2e>
 80023ca:	2d00      	cmp	r5, #0
 80023cc:	d1ec      	bne.n	80023a8 <I2C_WaitOnBTFFlagUntilTimeout+0x8>
 80023ce:	2300      	movs	r3, #0
 80023d0:	2220      	movs	r2, #32
 80023d2:	6323      	str	r3, [r4, #48]	; 0x30
 80023d4:	f884 203d 	strb.w	r2, [r4, #61]	; 0x3d
 80023d8:	f884 303e 	strb.w	r3, [r4, #62]	; 0x3e
 80023dc:	6c22      	ldr	r2, [r4, #64]	; 0x40
 80023de:	f884 303c 	strb.w	r3, [r4, #60]	; 0x3c
 80023e2:	f042 0220 	orr.w	r2, r2, #32
 80023e6:	6422      	str	r2, [r4, #64]	; 0x40
 80023e8:	2001      	movs	r0, #1
 80023ea:	e7e2      	b.n	80023b2 <I2C_WaitOnBTFFlagUntilTimeout+0x12>

080023ec <I2C_WaitOnTXEFlagUntilTimeout>:
 80023ec:	b570      	push	{r4, r5, r6, lr}
 80023ee:	4604      	mov	r4, r0
 80023f0:	460d      	mov	r5, r1
 80023f2:	4616      	mov	r6, r2
 80023f4:	6823      	ldr	r3, [r4, #0]
 80023f6:	695b      	ldr	r3, [r3, #20]
 80023f8:	061b      	lsls	r3, r3, #24
 80023fa:	d501      	bpl.n	8002400 <I2C_WaitOnTXEFlagUntilTimeout+0x14>
 80023fc:	2000      	movs	r0, #0
 80023fe:	bd70      	pop	{r4, r5, r6, pc}
 8002400:	4620      	mov	r0, r4
 8002402:	f7ff ff18 	bl	8002236 <I2C_IsAcknowledgeFailed>
 8002406:	b9a8      	cbnz	r0, 8002434 <I2C_WaitOnTXEFlagUntilTimeout+0x48>
 8002408:	1c6a      	adds	r2, r5, #1
 800240a:	d0f3      	beq.n	80023f4 <I2C_WaitOnTXEFlagUntilTimeout+0x8>
 800240c:	f7ff fdc4 	bl	8001f98 <HAL_GetTick>
 8002410:	1b80      	subs	r0, r0, r6
 8002412:	42a8      	cmp	r0, r5
 8002414:	d801      	bhi.n	800241a <I2C_WaitOnTXEFlagUntilTimeout+0x2e>
 8002416:	2d00      	cmp	r5, #0
 8002418:	d1ec      	bne.n	80023f4 <I2C_WaitOnTXEFlagUntilTimeout+0x8>
 800241a:	2300      	movs	r3, #0
 800241c:	2220      	movs	r2, #32
 800241e:	6323      	str	r3, [r4, #48]	; 0x30
 8002420:	f884 203d 	strb.w	r2, [r4, #61]	; 0x3d
 8002424:	f884 303e 	strb.w	r3, [r4, #62]	; 0x3e
 8002428:	6c22      	ldr	r2, [r4, #64]	; 0x40
 800242a:	f884 303c 	strb.w	r3, [r4, #60]	; 0x3c
 800242e:	f042 0220 	orr.w	r2, r2, #32
 8002432:	6422      	str	r2, [r4, #64]	; 0x40
 8002434:	2001      	movs	r0, #1
 8002436:	e7e2      	b.n	80023fe <I2C_WaitOnTXEFlagUntilTimeout+0x12>

08002438 <HAL_I2C_Init>:
 8002438:	b570      	push	{r4, r5, r6, lr}
 800243a:	4604      	mov	r4, r0
 800243c:	b908      	cbnz	r0, 8002442 <HAL_I2C_Init+0xa>
 800243e:	2001      	movs	r0, #1
 8002440:	bd70      	pop	{r4, r5, r6, pc}
 8002442:	f890 303d 	ldrb.w	r3, [r0, #61]	; 0x3d
 8002446:	f003 02ff 	and.w	r2, r3, #255	; 0xff
 800244a:	b91b      	cbnz	r3, 8002454 <HAL_I2C_Init+0x1c>
 800244c:	f880 203c 	strb.w	r2, [r0, #60]	; 0x3c
 8002450:	f7ff fce2 	bl	8001e18 <HAL_I2C_MspInit>
 8002454:	2324      	movs	r3, #36	; 0x24
 8002456:	f884 303d 	strb.w	r3, [r4, #61]	; 0x3d
 800245a:	6823      	ldr	r3, [r4, #0]
 800245c:	681a      	ldr	r2, [r3, #0]
 800245e:	f022 0201 	bic.w	r2, r2, #1
 8002462:	601a      	str	r2, [r3, #0]
 8002464:	681a      	ldr	r2, [r3, #0]
 8002466:	f442 4200 	orr.w	r2, r2, #32768	; 0x8000
 800246a:	601a      	str	r2, [r3, #0]
 800246c:	681a      	ldr	r2, [r3, #0]
 800246e:	f422 4200 	bic.w	r2, r2, #32768	; 0x8000
 8002472:	601a      	str	r2, [r3, #0]
 8002474:	f000 fda4 	bl	8002fc0 <HAL_RCC_GetPCLK1Freq>
 8002478:	4a3f      	ldr	r2, [pc, #252]	; (8002578 <HAL_I2C_Init+0x140>)
 800247a:	6863      	ldr	r3, [r4, #4]
 800247c:	4293      	cmp	r3, r2
 800247e:	bf94      	ite	ls
 8002480:	4a3e      	ldrls	r2, [pc, #248]	; (800257c <HAL_I2C_Init+0x144>)
 8002482:	4a3f      	ldrhi	r2, [pc, #252]	; (8002580 <HAL_I2C_Init+0x148>)
 8002484:	4290      	cmp	r0, r2
 8002486:	bf8c      	ite	hi
 8002488:	2200      	movhi	r2, #0
 800248a:	2201      	movls	r2, #1
 800248c:	2a00      	cmp	r2, #0
 800248e:	d1d6      	bne.n	800243e <HAL_I2C_Init+0x6>
 8002490:	4e39      	ldr	r6, [pc, #228]	; (8002578 <HAL_I2C_Init+0x140>)
 8002492:	493c      	ldr	r1, [pc, #240]	; (8002584 <HAL_I2C_Init+0x14c>)
 8002494:	42b3      	cmp	r3, r6
 8002496:	fbb0 f1f1 	udiv	r1, r0, r1
 800249a:	bf88      	it	hi
 800249c:	f44f 7696 	movhi.w	r6, #300	; 0x12c
 80024a0:	6822      	ldr	r2, [r4, #0]
 80024a2:	f100 30ff 	add.w	r0, r0, #4294967295
 80024a6:	6855      	ldr	r5, [r2, #4]
 80024a8:	f025 053f 	bic.w	r5, r5, #63	; 0x3f
 80024ac:	ea45 0501 	orr.w	r5, r5, r1
 80024b0:	bf82      	ittt	hi
 80024b2:	4371      	mulhi	r1, r6
 80024b4:	f44f 767a 	movhi.w	r6, #1000	; 0x3e8
 80024b8:	fbb1 f1f6 	udivhi	r1, r1, r6
 80024bc:	6055      	str	r5, [r2, #4]
 80024be:	6a15      	ldr	r5, [r2, #32]
 80024c0:	3101      	adds	r1, #1
 80024c2:	f025 053f 	bic.w	r5, r5, #63	; 0x3f
 80024c6:	4329      	orrs	r1, r5
 80024c8:	6211      	str	r1, [r2, #32]
 80024ca:	69d1      	ldr	r1, [r2, #28]
 80024cc:	4d2a      	ldr	r5, [pc, #168]	; (8002578 <HAL_I2C_Init+0x140>)
 80024ce:	f421 414f 	bic.w	r1, r1, #52992	; 0xcf00
 80024d2:	42ab      	cmp	r3, r5
 80024d4:	f021 01ff 	bic.w	r1, r1, #255	; 0xff
 80024d8:	d832      	bhi.n	8002540 <HAL_I2C_Init+0x108>
 80024da:	005b      	lsls	r3, r3, #1
 80024dc:	fbb0 f0f3 	udiv	r0, r0, r3
 80024e0:	1c43      	adds	r3, r0, #1
 80024e2:	f640 70fc 	movw	r0, #4092	; 0xffc
 80024e6:	4203      	tst	r3, r0
 80024e8:	d042      	beq.n	8002570 <HAL_I2C_Init+0x138>
 80024ea:	f3c3 030b 	ubfx	r3, r3, #0, #12
 80024ee:	430b      	orrs	r3, r1
 80024f0:	61d3      	str	r3, [r2, #28]
 80024f2:	6811      	ldr	r1, [r2, #0]
 80024f4:	e9d4 3007 	ldrd	r3, r0, [r4, #28]
 80024f8:	f021 01c0 	bic.w	r1, r1, #192	; 0xc0
 80024fc:	4303      	orrs	r3, r0
 80024fe:	430b      	orrs	r3, r1
 8002500:	6013      	str	r3, [r2, #0]
 8002502:	6891      	ldr	r1, [r2, #8]
 8002504:	e9d4 0303 	ldrd	r0, r3, [r4, #12]
 8002508:	f421 4103 	bic.w	r1, r1, #33536	; 0x8300
 800250c:	4303      	orrs	r3, r0
 800250e:	f021 01ff 	bic.w	r1, r1, #255	; 0xff
 8002512:	430b      	orrs	r3, r1
 8002514:	6093      	str	r3, [r2, #8]
 8002516:	68d1      	ldr	r1, [r2, #12]
 8002518:	e9d4 3005 	ldrd	r3, r0, [r4, #20]
 800251c:	f021 01ff 	bic.w	r1, r1, #255	; 0xff
 8002520:	4303      	orrs	r3, r0
 8002522:	430b      	orrs	r3, r1
 8002524:	60d3      	str	r3, [r2, #12]
 8002526:	6813      	ldr	r3, [r2, #0]
 8002528:	2000      	movs	r0, #0
 800252a:	f043 0301 	orr.w	r3, r3, #1
 800252e:	6013      	str	r3, [r2, #0]
 8002530:	2320      	movs	r3, #32
 8002532:	6420      	str	r0, [r4, #64]	; 0x40
 8002534:	f884 303d 	strb.w	r3, [r4, #61]	; 0x3d
 8002538:	6320      	str	r0, [r4, #48]	; 0x30
 800253a:	f884 003e 	strb.w	r0, [r4, #62]	; 0x3e
 800253e:	e77f      	b.n	8002440 <HAL_I2C_Init+0x8>
 8002540:	68a5      	ldr	r5, [r4, #8]
 8002542:	b955      	cbnz	r5, 800255a <HAL_I2C_Init+0x122>
 8002544:	eb03 0343 	add.w	r3, r3, r3, lsl #1
 8002548:	fbb0 f3f3 	udiv	r3, r0, r3
 800254c:	3301      	adds	r3, #1
 800254e:	f3c3 030b 	ubfx	r3, r3, #0, #12
 8002552:	b17b      	cbz	r3, 8002574 <HAL_I2C_Init+0x13c>
 8002554:	f443 4300 	orr.w	r3, r3, #32768	; 0x8000
 8002558:	e7c9      	b.n	80024ee <HAL_I2C_Init+0xb6>
 800255a:	2519      	movs	r5, #25
 800255c:	436b      	muls	r3, r5
 800255e:	fbb0 f3f3 	udiv	r3, r0, r3
 8002562:	3301      	adds	r3, #1
 8002564:	f3c3 030b 	ubfx	r3, r3, #0, #12
 8002568:	b123      	cbz	r3, 8002574 <HAL_I2C_Init+0x13c>
 800256a:	f443 4340 	orr.w	r3, r3, #49152	; 0xc000
 800256e:	e7be      	b.n	80024ee <HAL_I2C_Init+0xb6>
 8002570:	2304      	movs	r3, #4
 8002572:	e7bc      	b.n	80024ee <HAL_I2C_Init+0xb6>
 8002574:	2301      	movs	r3, #1
 8002576:	e7ba      	b.n	80024ee <HAL_I2C_Init+0xb6>
 8002578:	000186a0 	.word	0x000186a0
 800257c:	001e847f 	.word	0x001e847f
 8002580:	003d08ff 	.word	0x003d08ff
 8002584:	000f4240 	.word	0x000f4240

08002588 <HAL_I2C_Master_Transmit>:
 8002588:	e92d 43f0 	stmdb	sp!, {r4, r5, r6, r7, r8, r9, lr}
 800258c:	4604      	mov	r4, r0
 800258e:	b085      	sub	sp, #20
 8002590:	4698      	mov	r8, r3
 8002592:	460d      	mov	r5, r1
 8002594:	4691      	mov	r9, r2
 8002596:	9f0c      	ldr	r7, [sp, #48]	; 0x30
 8002598:	f7ff fcfe 	bl	8001f98 <HAL_GetTick>
 800259c:	f894 303d 	ldrb.w	r3, [r4, #61]	; 0x3d
 80025a0:	4606      	mov	r6, r0
 80025a2:	2b20      	cmp	r3, #32
 80025a4:	d004      	beq.n	80025b0 <HAL_I2C_Master_Transmit+0x28>
 80025a6:	2502      	movs	r5, #2
 80025a8:	4628      	mov	r0, r5
 80025aa:	b005      	add	sp, #20
 80025ac:	e8bd 83f0 	ldmia.w	sp!, {r4, r5, r6, r7, r8, r9, pc}
 80025b0:	9000      	str	r0, [sp, #0]
 80025b2:	2319      	movs	r3, #25
 80025b4:	2201      	movs	r2, #1
 80025b6:	4620      	mov	r0, r4
 80025b8:	495b      	ldr	r1, [pc, #364]	; (8002728 <HAL_I2C_Master_Transmit+0x1a0>)
 80025ba:	f7ff fe55 	bl	8002268 <I2C_WaitOnFlagUntilTimeout>
 80025be:	2800      	cmp	r0, #0
 80025c0:	d1f1      	bne.n	80025a6 <HAL_I2C_Master_Transmit+0x1e>
 80025c2:	f894 303c 	ldrb.w	r3, [r4, #60]	; 0x3c
 80025c6:	2b01      	cmp	r3, #1
 80025c8:	d0ed      	beq.n	80025a6 <HAL_I2C_Master_Transmit+0x1e>
 80025ca:	2301      	movs	r3, #1
 80025cc:	6821      	ldr	r1, [r4, #0]
 80025ce:	f884 303c 	strb.w	r3, [r4, #60]	; 0x3c
 80025d2:	680b      	ldr	r3, [r1, #0]
 80025d4:	07da      	lsls	r2, r3, #31
 80025d6:	bf5e      	ittt	pl
 80025d8:	680b      	ldrpl	r3, [r1, #0]
 80025da:	f043 0301 	orrpl.w	r3, r3, #1
 80025de:	600b      	strpl	r3, [r1, #0]
 80025e0:	680b      	ldr	r3, [r1, #0]
 80025e2:	f423 6300 	bic.w	r3, r3, #2048	; 0x800
 80025e6:	600b      	str	r3, [r1, #0]
 80025e8:	2321      	movs	r3, #33	; 0x21
 80025ea:	f884 303d 	strb.w	r3, [r4, #61]	; 0x3d
 80025ee:	2310      	movs	r3, #16
 80025f0:	f884 303e 	strb.w	r3, [r4, #62]	; 0x3e
 80025f4:	2300      	movs	r3, #0
 80025f6:	6423      	str	r3, [r4, #64]	; 0x40
 80025f8:	f8a4 802a 	strh.w	r8, [r4, #42]	; 0x2a
 80025fc:	8d63      	ldrh	r3, [r4, #42]	; 0x2a
 80025fe:	f8c4 9024 	str.w	r9, [r4, #36]	; 0x24
 8002602:	8523      	strh	r3, [r4, #40]	; 0x28
 8002604:	4b49      	ldr	r3, [pc, #292]	; (800272c <HAL_I2C_Master_Transmit+0x1a4>)
 8002606:	62e3      	str	r3, [r4, #44]	; 0x2c
 8002608:	6ae3      	ldr	r3, [r4, #44]	; 0x2c
 800260a:	2b08      	cmp	r3, #8
 800260c:	d004      	beq.n	8002618 <HAL_I2C_Master_Transmit+0x90>
 800260e:	2b01      	cmp	r3, #1
 8002610:	d002      	beq.n	8002618 <HAL_I2C_Master_Transmit+0x90>
 8002612:	f513 3f80 	cmn.w	r3, #65536	; 0x10000
 8002616:	d104      	bne.n	8002622 <HAL_I2C_Master_Transmit+0x9a>
 8002618:	680b      	ldr	r3, [r1, #0]
 800261a:	f443 7380 	orr.w	r3, r3, #256	; 0x100
 800261e:	600b      	str	r3, [r1, #0]
 8002620:	e002      	b.n	8002628 <HAL_I2C_Master_Transmit+0xa0>
 8002622:	6b23      	ldr	r3, [r4, #48]	; 0x30
 8002624:	2b12      	cmp	r3, #18
 8002626:	d0f7      	beq.n	8002618 <HAL_I2C_Master_Transmit+0x90>
 8002628:	2200      	movs	r2, #0
 800262a:	463b      	mov	r3, r7
 800262c:	f04f 1101 	mov.w	r1, #65537	; 0x10001
 8002630:	4620      	mov	r0, r4
 8002632:	9600      	str	r6, [sp, #0]
 8002634:	f7ff fe18 	bl	8002268 <I2C_WaitOnFlagUntilTimeout>
 8002638:	6822      	ldr	r2, [r4, #0]
 800263a:	b138      	cbz	r0, 800264c <HAL_I2C_Master_Transmit+0xc4>
 800263c:	6813      	ldr	r3, [r2, #0]
 800263e:	05db      	lsls	r3, r3, #23
 8002640:	bf44      	itt	mi
 8002642:	f44f 7300 	movmi.w	r3, #512	; 0x200
 8002646:	6423      	strmi	r3, [r4, #64]	; 0x40
 8002648:	2501      	movs	r5, #1
 800264a:	e7ad      	b.n	80025a8 <HAL_I2C_Master_Transmit+0x20>
 800264c:	6923      	ldr	r3, [r4, #16]
 800264e:	f5b3 4f80 	cmp.w	r3, #16384	; 0x4000
 8002652:	d121      	bne.n	8002698 <HAL_I2C_Master_Transmit+0x110>
 8002654:	f005 05fe 	and.w	r5, r5, #254	; 0xfe
 8002658:	6115      	str	r5, [r2, #16]
 800265a:	4633      	mov	r3, r6
 800265c:	463a      	mov	r2, r7
 800265e:	4620      	mov	r0, r4
 8002660:	4933      	ldr	r1, [pc, #204]	; (8002730 <HAL_I2C_Master_Transmit+0x1a8>)
 8002662:	f7ff fe33 	bl	80022cc <I2C_WaitOnMasterAddressFlagUntilTimeout>
 8002666:	4605      	mov	r5, r0
 8002668:	2800      	cmp	r0, #0
 800266a:	d1ed      	bne.n	8002648 <HAL_I2C_Master_Transmit+0xc0>
 800266c:	6823      	ldr	r3, [r4, #0]
 800266e:	9003      	str	r0, [sp, #12]
 8002670:	695a      	ldr	r2, [r3, #20]
 8002672:	9203      	str	r2, [sp, #12]
 8002674:	699b      	ldr	r3, [r3, #24]
 8002676:	9303      	str	r3, [sp, #12]
 8002678:	9b03      	ldr	r3, [sp, #12]
 800267a:	8d23      	ldrh	r3, [r4, #40]	; 0x28
 800267c:	b9f3      	cbnz	r3, 80026bc <HAL_I2C_Master_Transmit+0x134>
 800267e:	6821      	ldr	r1, [r4, #0]
 8002680:	680a      	ldr	r2, [r1, #0]
 8002682:	f442 7200 	orr.w	r2, r2, #512	; 0x200
 8002686:	600a      	str	r2, [r1, #0]
 8002688:	2220      	movs	r2, #32
 800268a:	f884 303c 	strb.w	r3, [r4, #60]	; 0x3c
 800268e:	f884 203d 	strb.w	r2, [r4, #61]	; 0x3d
 8002692:	f884 303e 	strb.w	r3, [r4, #62]	; 0x3e
 8002696:	e787      	b.n	80025a8 <HAL_I2C_Master_Transmit+0x20>
 8002698:	11eb      	asrs	r3, r5, #7
 800269a:	f003 0306 	and.w	r3, r3, #6
 800269e:	f043 03f0 	orr.w	r3, r3, #240	; 0xf0
 80026a2:	6113      	str	r3, [r2, #16]
 80026a4:	4620      	mov	r0, r4
 80026a6:	4633      	mov	r3, r6
 80026a8:	463a      	mov	r2, r7
 80026aa:	4922      	ldr	r1, [pc, #136]	; (8002734 <HAL_I2C_Master_Transmit+0x1ac>)
 80026ac:	f7ff fe0e 	bl	80022cc <I2C_WaitOnMasterAddressFlagUntilTimeout>
 80026b0:	2800      	cmp	r0, #0
 80026b2:	d1c9      	bne.n	8002648 <HAL_I2C_Master_Transmit+0xc0>
 80026b4:	6823      	ldr	r3, [r4, #0]
 80026b6:	b2ed      	uxtb	r5, r5
 80026b8:	611d      	str	r5, [r3, #16]
 80026ba:	e7ce      	b.n	800265a <HAL_I2C_Master_Transmit+0xd2>
 80026bc:	4632      	mov	r2, r6
 80026be:	4639      	mov	r1, r7
 80026c0:	4620      	mov	r0, r4
 80026c2:	f7ff fe93 	bl	80023ec <I2C_WaitOnTXEFlagUntilTimeout>
 80026c6:	b140      	cbz	r0, 80026da <HAL_I2C_Master_Transmit+0x152>
 80026c8:	6c23      	ldr	r3, [r4, #64]	; 0x40
 80026ca:	2b04      	cmp	r3, #4
 80026cc:	d1bc      	bne.n	8002648 <HAL_I2C_Master_Transmit+0xc0>
 80026ce:	6822      	ldr	r2, [r4, #0]
 80026d0:	6813      	ldr	r3, [r2, #0]
 80026d2:	f443 7300 	orr.w	r3, r3, #512	; 0x200
 80026d6:	6013      	str	r3, [r2, #0]
 80026d8:	e7b6      	b.n	8002648 <HAL_I2C_Master_Transmit+0xc0>
 80026da:	6a63      	ldr	r3, [r4, #36]	; 0x24
 80026dc:	6820      	ldr	r0, [r4, #0]
 80026de:	461a      	mov	r2, r3
 80026e0:	f812 1b01 	ldrb.w	r1, [r2], #1
 80026e4:	6101      	str	r1, [r0, #16]
 80026e6:	6262      	str	r2, [r4, #36]	; 0x24
 80026e8:	8d62      	ldrh	r2, [r4, #42]	; 0x2a
 80026ea:	3a01      	subs	r2, #1
 80026ec:	b292      	uxth	r2, r2
 80026ee:	8562      	strh	r2, [r4, #42]	; 0x2a
 80026f0:	8d22      	ldrh	r2, [r4, #40]	; 0x28
 80026f2:	f8d0 c014 	ldr.w	ip, [r0, #20]
 80026f6:	1e51      	subs	r1, r2, #1
 80026f8:	b289      	uxth	r1, r1
 80026fa:	f01c 0f04 	tst.w	ip, #4
 80026fe:	8521      	strh	r1, [r4, #40]	; 0x28
 8002700:	d00a      	beq.n	8002718 <HAL_I2C_Master_Transmit+0x190>
 8002702:	b149      	cbz	r1, 8002718 <HAL_I2C_Master_Transmit+0x190>
 8002704:	7859      	ldrb	r1, [r3, #1]
 8002706:	3302      	adds	r3, #2
 8002708:	6101      	str	r1, [r0, #16]
 800270a:	6263      	str	r3, [r4, #36]	; 0x24
 800270c:	8d63      	ldrh	r3, [r4, #42]	; 0x2a
 800270e:	3a02      	subs	r2, #2
 8002710:	3b01      	subs	r3, #1
 8002712:	b29b      	uxth	r3, r3
 8002714:	8563      	strh	r3, [r4, #42]	; 0x2a
 8002716:	8522      	strh	r2, [r4, #40]	; 0x28
 8002718:	4632      	mov	r2, r6
 800271a:	4639      	mov	r1, r7
 800271c:	4620      	mov	r0, r4
 800271e:	f7ff fe3f 	bl	80023a0 <I2C_WaitOnBTFFlagUntilTimeout>
 8002722:	2800      	cmp	r0, #0
 8002724:	d0a9      	beq.n	800267a <HAL_I2C_Master_Transmit+0xf2>
 8002726:	e7cf      	b.n	80026c8 <HAL_I2C_Master_Transmit+0x140>
 8002728:	00100002 	.word	0x00100002
 800272c:	ffff0000 	.word	0xffff0000
 8002730:	00010002 	.word	0x00010002
 8002734:	00010008 	.word	0x00010008

08002738 <HAL_I2C_Master_Receive>:
 8002738:	e92d 43f0 	stmdb	sp!, {r4, r5, r6, r7, r8, r9, lr}
 800273c:	4698      	mov	r8, r3
 800273e:	2300      	movs	r3, #0
 8002740:	4604      	mov	r4, r0
 8002742:	b089      	sub	sp, #36	; 0x24
 8002744:	9302      	str	r3, [sp, #8]
 8002746:	460d      	mov	r5, r1
 8002748:	4691      	mov	r9, r2
 800274a:	9f10      	ldr	r7, [sp, #64]	; 0x40
 800274c:	f7ff fc24 	bl	8001f98 <HAL_GetTick>
 8002750:	f894 303d 	ldrb.w	r3, [r4, #61]	; 0x3d
 8002754:	4606      	mov	r6, r0
 8002756:	2b20      	cmp	r3, #32
 8002758:	d004      	beq.n	8002764 <HAL_I2C_Master_Receive+0x2c>
 800275a:	2502      	movs	r5, #2
 800275c:	4628      	mov	r0, r5
 800275e:	b009      	add	sp, #36	; 0x24
 8002760:	e8bd 83f0 	ldmia.w	sp!, {r4, r5, r6, r7, r8, r9, pc}
 8002764:	9000      	str	r0, [sp, #0]
 8002766:	2319      	movs	r3, #25
 8002768:	2201      	movs	r2, #1
 800276a:	4620      	mov	r0, r4
 800276c:	498f      	ldr	r1, [pc, #572]	; (80029ac <HAL_I2C_Master_Receive+0x274>)
 800276e:	f7ff fd7b 	bl	8002268 <I2C_WaitOnFlagUntilTimeout>
 8002772:	2800      	cmp	r0, #0
 8002774:	d1f1      	bne.n	800275a <HAL_I2C_Master_Receive+0x22>
 8002776:	f894 303c 	ldrb.w	r3, [r4, #60]	; 0x3c
 800277a:	2b01      	cmp	r3, #1
 800277c:	d0ed      	beq.n	800275a <HAL_I2C_Master_Receive+0x22>
 800277e:	2301      	movs	r3, #1
 8002780:	6821      	ldr	r1, [r4, #0]
 8002782:	f884 303c 	strb.w	r3, [r4, #60]	; 0x3c
 8002786:	680b      	ldr	r3, [r1, #0]
 8002788:	07db      	lsls	r3, r3, #31
 800278a:	bf5e      	ittt	pl
 800278c:	680b      	ldrpl	r3, [r1, #0]
 800278e:	f043 0301 	orrpl.w	r3, r3, #1
 8002792:	600b      	strpl	r3, [r1, #0]
 8002794:	680b      	ldr	r3, [r1, #0]
 8002796:	f423 6300 	bic.w	r3, r3, #2048	; 0x800
 800279a:	600b      	str	r3, [r1, #0]
 800279c:	2322      	movs	r3, #34	; 0x22
 800279e:	f884 303d 	strb.w	r3, [r4, #61]	; 0x3d
 80027a2:	2310      	movs	r3, #16
 80027a4:	f884 303e 	strb.w	r3, [r4, #62]	; 0x3e
 80027a8:	2300      	movs	r3, #0
 80027aa:	6423      	str	r3, [r4, #64]	; 0x40
 80027ac:	f8a4 802a 	strh.w	r8, [r4, #42]	; 0x2a
 80027b0:	8d63      	ldrh	r3, [r4, #42]	; 0x2a
 80027b2:	f8c4 9024 	str.w	r9, [r4, #36]	; 0x24
 80027b6:	8523      	strh	r3, [r4, #40]	; 0x28
 80027b8:	4b7d      	ldr	r3, [pc, #500]	; (80029b0 <HAL_I2C_Master_Receive+0x278>)
 80027ba:	62e3      	str	r3, [r4, #44]	; 0x2c
 80027bc:	6ae3      	ldr	r3, [r4, #44]	; 0x2c
 80027be:	680a      	ldr	r2, [r1, #0]
 80027c0:	2b08      	cmp	r3, #8
 80027c2:	f442 6280 	orr.w	r2, r2, #1024	; 0x400
 80027c6:	600a      	str	r2, [r1, #0]
 80027c8:	d004      	beq.n	80027d4 <HAL_I2C_Master_Receive+0x9c>
 80027ca:	2b01      	cmp	r3, #1
 80027cc:	d002      	beq.n	80027d4 <HAL_I2C_Master_Receive+0x9c>
 80027ce:	f513 3f80 	cmn.w	r3, #65536	; 0x10000
 80027d2:	d104      	bne.n	80027de <HAL_I2C_Master_Receive+0xa6>
 80027d4:	680b      	ldr	r3, [r1, #0]
 80027d6:	f443 7380 	orr.w	r3, r3, #256	; 0x100
 80027da:	600b      	str	r3, [r1, #0]
 80027dc:	e002      	b.n	80027e4 <HAL_I2C_Master_Receive+0xac>
 80027de:	6b23      	ldr	r3, [r4, #48]	; 0x30
 80027e0:	2b11      	cmp	r3, #17
 80027e2:	d0f7      	beq.n	80027d4 <HAL_I2C_Master_Receive+0x9c>
 80027e4:	463b      	mov	r3, r7
 80027e6:	2200      	movs	r2, #0
 80027e8:	f04f 1101 	mov.w	r1, #65537	; 0x10001
 80027ec:	4620      	mov	r0, r4
 80027ee:	9600      	str	r6, [sp, #0]
 80027f0:	f7ff fd3a 	bl	8002268 <I2C_WaitOnFlagUntilTimeout>
 80027f4:	6823      	ldr	r3, [r4, #0]
 80027f6:	b138      	cbz	r0, 8002808 <HAL_I2C_Master_Receive+0xd0>
 80027f8:	681b      	ldr	r3, [r3, #0]
 80027fa:	05dd      	lsls	r5, r3, #23
 80027fc:	d502      	bpl.n	8002804 <HAL_I2C_Master_Receive+0xcc>
 80027fe:	f44f 7300 	mov.w	r3, #512	; 0x200
 8002802:	6423      	str	r3, [r4, #64]	; 0x40
 8002804:	2501      	movs	r5, #1
 8002806:	e7a9      	b.n	800275c <HAL_I2C_Master_Receive+0x24>
 8002808:	6922      	ldr	r2, [r4, #16]
 800280a:	f5b2 4f80 	cmp.w	r2, #16384	; 0x4000
 800280e:	d129      	bne.n	8002864 <HAL_I2C_Master_Receive+0x12c>
 8002810:	f045 0501 	orr.w	r5, r5, #1
 8002814:	b2ed      	uxtb	r5, r5
 8002816:	611d      	str	r5, [r3, #16]
 8002818:	4633      	mov	r3, r6
 800281a:	463a      	mov	r2, r7
 800281c:	4620      	mov	r0, r4
 800281e:	4965      	ldr	r1, [pc, #404]	; (80029b4 <HAL_I2C_Master_Receive+0x27c>)
 8002820:	f7ff fd54 	bl	80022cc <I2C_WaitOnMasterAddressFlagUntilTimeout>
 8002824:	4605      	mov	r5, r0
 8002826:	2800      	cmp	r0, #0
 8002828:	d1ec      	bne.n	8002804 <HAL_I2C_Master_Receive+0xcc>
 800282a:	8d22      	ldrh	r2, [r4, #40]	; 0x28
 800282c:	6823      	ldr	r3, [r4, #0]
 800282e:	2a00      	cmp	r2, #0
 8002830:	d14d      	bne.n	80028ce <HAL_I2C_Master_Receive+0x196>
 8002832:	9003      	str	r0, [sp, #12]
 8002834:	695a      	ldr	r2, [r3, #20]
 8002836:	9203      	str	r2, [sp, #12]
 8002838:	699a      	ldr	r2, [r3, #24]
 800283a:	9203      	str	r2, [sp, #12]
 800283c:	9a03      	ldr	r2, [sp, #12]
 800283e:	681a      	ldr	r2, [r3, #0]
 8002840:	f442 7200 	orr.w	r2, r2, #512	; 0x200
 8002844:	601a      	str	r2, [r3, #0]
 8002846:	f8df 8170 	ldr.w	r8, [pc, #368]	; 80029b8 <HAL_I2C_Master_Receive+0x280>
 800284a:	f8df 9170 	ldr.w	r9, [pc, #368]	; 80029bc <HAL_I2C_Master_Receive+0x284>
 800284e:	8d23      	ldrh	r3, [r4, #40]	; 0x28
 8002850:	2b00      	cmp	r3, #0
 8002852:	d16c      	bne.n	800292e <HAL_I2C_Master_Receive+0x1f6>
 8002854:	2220      	movs	r2, #32
 8002856:	f884 303c 	strb.w	r3, [r4, #60]	; 0x3c
 800285a:	f884 203d 	strb.w	r2, [r4, #61]	; 0x3d
 800285e:	f884 303e 	strb.w	r3, [r4, #62]	; 0x3e
 8002862:	e77b      	b.n	800275c <HAL_I2C_Master_Receive+0x24>
 8002864:	ea4f 18e5 	mov.w	r8, r5, asr #7
 8002868:	f008 0806 	and.w	r8, r8, #6
 800286c:	f048 02f0 	orr.w	r2, r8, #240	; 0xf0
 8002870:	611a      	str	r2, [r3, #16]
 8002872:	4620      	mov	r0, r4
 8002874:	4633      	mov	r3, r6
 8002876:	463a      	mov	r2, r7
 8002878:	4951      	ldr	r1, [pc, #324]	; (80029c0 <HAL_I2C_Master_Receive+0x288>)
 800287a:	f7ff fd27 	bl	80022cc <I2C_WaitOnMasterAddressFlagUntilTimeout>
 800287e:	2800      	cmp	r0, #0
 8002880:	d1c0      	bne.n	8002804 <HAL_I2C_Master_Receive+0xcc>
 8002882:	6823      	ldr	r3, [r4, #0]
 8002884:	b2ed      	uxtb	r5, r5
 8002886:	463a      	mov	r2, r7
 8002888:	611d      	str	r5, [r3, #16]
 800288a:	4620      	mov	r0, r4
 800288c:	4633      	mov	r3, r6
 800288e:	4949      	ldr	r1, [pc, #292]	; (80029b4 <HAL_I2C_Master_Receive+0x27c>)
 8002890:	f7ff fd1c 	bl	80022cc <I2C_WaitOnMasterAddressFlagUntilTimeout>
 8002894:	4602      	mov	r2, r0
 8002896:	2800      	cmp	r0, #0
 8002898:	d1b4      	bne.n	8002804 <HAL_I2C_Master_Receive+0xcc>
 800289a:	6823      	ldr	r3, [r4, #0]
 800289c:	9007      	str	r0, [sp, #28]
 800289e:	6959      	ldr	r1, [r3, #20]
 80028a0:	4620      	mov	r0, r4
 80028a2:	9107      	str	r1, [sp, #28]
 80028a4:	6999      	ldr	r1, [r3, #24]
 80028a6:	9107      	str	r1, [sp, #28]
 80028a8:	9907      	ldr	r1, [sp, #28]
 80028aa:	6819      	ldr	r1, [r3, #0]
 80028ac:	f441 7180 	orr.w	r1, r1, #256	; 0x100
 80028b0:	6019      	str	r1, [r3, #0]
 80028b2:	463b      	mov	r3, r7
 80028b4:	f04f 1101 	mov.w	r1, #65537	; 0x10001
 80028b8:	9600      	str	r6, [sp, #0]
 80028ba:	f7ff fcd5 	bl	8002268 <I2C_WaitOnFlagUntilTimeout>
 80028be:	6822      	ldr	r2, [r4, #0]
 80028c0:	b108      	cbz	r0, 80028c6 <HAL_I2C_Master_Receive+0x18e>
 80028c2:	6813      	ldr	r3, [r2, #0]
 80028c4:	e799      	b.n	80027fa <HAL_I2C_Master_Receive+0xc2>
 80028c6:	f048 03f1 	orr.w	r3, r8, #241	; 0xf1
 80028ca:	6113      	str	r3, [r2, #16]
 80028cc:	e7a4      	b.n	8002818 <HAL_I2C_Master_Receive+0xe0>
 80028ce:	2a01      	cmp	r2, #1
 80028d0:	d111      	bne.n	80028f6 <HAL_I2C_Master_Receive+0x1be>
 80028d2:	681a      	ldr	r2, [r3, #0]
 80028d4:	f422 6280 	bic.w	r2, r2, #1024	; 0x400
 80028d8:	601a      	str	r2, [r3, #0]
 80028da:	b672      	cpsid	i
 80028dc:	6823      	ldr	r3, [r4, #0]
 80028de:	9004      	str	r0, [sp, #16]
 80028e0:	695a      	ldr	r2, [r3, #20]
 80028e2:	9204      	str	r2, [sp, #16]
 80028e4:	699a      	ldr	r2, [r3, #24]
 80028e6:	9204      	str	r2, [sp, #16]
 80028e8:	9a04      	ldr	r2, [sp, #16]
 80028ea:	681a      	ldr	r2, [r3, #0]
 80028ec:	f442 7200 	orr.w	r2, r2, #512	; 0x200
 80028f0:	601a      	str	r2, [r3, #0]
 80028f2:	b662      	cpsie	i
 80028f4:	e7a7      	b.n	8002846 <HAL_I2C_Master_Receive+0x10e>
 80028f6:	2a02      	cmp	r2, #2
 80028f8:	681a      	ldr	r2, [r3, #0]
 80028fa:	d10e      	bne.n	800291a <HAL_I2C_Master_Receive+0x1e2>
 80028fc:	f442 6200 	orr.w	r2, r2, #2048	; 0x800
 8002900:	601a      	str	r2, [r3, #0]
 8002902:	b672      	cpsid	i
 8002904:	6823      	ldr	r3, [r4, #0]
 8002906:	9005      	str	r0, [sp, #20]
 8002908:	695a      	ldr	r2, [r3, #20]
 800290a:	9205      	str	r2, [sp, #20]
 800290c:	699a      	ldr	r2, [r3, #24]
 800290e:	9205      	str	r2, [sp, #20]
 8002910:	9a05      	ldr	r2, [sp, #20]
 8002912:	681a      	ldr	r2, [r3, #0]
 8002914:	f422 6280 	bic.w	r2, r2, #1024	; 0x400
 8002918:	e7ea      	b.n	80028f0 <HAL_I2C_Master_Receive+0x1b8>
 800291a:	f442 6280 	orr.w	r2, r2, #1024	; 0x400
 800291e:	601a      	str	r2, [r3, #0]
 8002920:	9006      	str	r0, [sp, #24]
 8002922:	695a      	ldr	r2, [r3, #20]
 8002924:	9206      	str	r2, [sp, #24]
 8002926:	699b      	ldr	r3, [r3, #24]
 8002928:	9306      	str	r3, [sp, #24]
 800292a:	9b06      	ldr	r3, [sp, #24]
 800292c:	e78b      	b.n	8002846 <HAL_I2C_Master_Receive+0x10e>
 800292e:	2b03      	cmp	r3, #3
 8002930:	f200 8088 	bhi.w	8002a44 <HAL_I2C_Master_Receive+0x30c>
 8002934:	2b01      	cmp	r3, #1
 8002936:	d116      	bne.n	8002966 <HAL_I2C_Master_Receive+0x22e>
 8002938:	4632      	mov	r2, r6
 800293a:	4639      	mov	r1, r7
 800293c:	4620      	mov	r0, r4
 800293e:	f7ff fd00 	bl	8002342 <I2C_WaitOnRXNEFlagUntilTimeout>
 8002942:	2800      	cmp	r0, #0
 8002944:	f47f af5e 	bne.w	8002804 <HAL_I2C_Master_Receive+0xcc>
 8002948:	6823      	ldr	r3, [r4, #0]
 800294a:	691a      	ldr	r2, [r3, #16]
 800294c:	6a63      	ldr	r3, [r4, #36]	; 0x24
 800294e:	701a      	strb	r2, [r3, #0]
 8002950:	6a63      	ldr	r3, [r4, #36]	; 0x24
 8002952:	3301      	adds	r3, #1
 8002954:	6263      	str	r3, [r4, #36]	; 0x24
 8002956:	8d23      	ldrh	r3, [r4, #40]	; 0x28
 8002958:	3b01      	subs	r3, #1
 800295a:	8523      	strh	r3, [r4, #40]	; 0x28
 800295c:	8d63      	ldrh	r3, [r4, #42]	; 0x2a
 800295e:	3b01      	subs	r3, #1
 8002960:	b29b      	uxth	r3, r3
 8002962:	8563      	strh	r3, [r4, #42]	; 0x2a
 8002964:	e773      	b.n	800284e <HAL_I2C_Master_Receive+0x116>
 8002966:	2b02      	cmp	r3, #2
 8002968:	f04f 0200 	mov.w	r2, #0
 800296c:	463b      	mov	r3, r7
 800296e:	4641      	mov	r1, r8
 8002970:	4620      	mov	r0, r4
 8002972:	9600      	str	r6, [sp, #0]
 8002974:	d126      	bne.n	80029c4 <HAL_I2C_Master_Receive+0x28c>
 8002976:	f7ff fc77 	bl	8002268 <I2C_WaitOnFlagUntilTimeout>
 800297a:	2800      	cmp	r0, #0
 800297c:	f47f af42 	bne.w	8002804 <HAL_I2C_Master_Receive+0xcc>
 8002980:	b672      	cpsid	i
 8002982:	6823      	ldr	r3, [r4, #0]
 8002984:	681a      	ldr	r2, [r3, #0]
 8002986:	f442 7200 	orr.w	r2, r2, #512	; 0x200
 800298a:	601a      	str	r2, [r3, #0]
 800298c:	691a      	ldr	r2, [r3, #16]
 800298e:	6a63      	ldr	r3, [r4, #36]	; 0x24
 8002990:	701a      	strb	r2, [r3, #0]
 8002992:	6a63      	ldr	r3, [r4, #36]	; 0x24
 8002994:	3301      	adds	r3, #1
 8002996:	6263      	str	r3, [r4, #36]	; 0x24
 8002998:	8d23      	ldrh	r3, [r4, #40]	; 0x28
 800299a:	3b01      	subs	r3, #1
 800299c:	8523      	strh	r3, [r4, #40]	; 0x28
 800299e:	8d63      	ldrh	r3, [r4, #42]	; 0x2a
 80029a0:	3b01      	subs	r3, #1
 80029a2:	b29b      	uxth	r3, r3
 80029a4:	8563      	strh	r3, [r4, #42]	; 0x2a
 80029a6:	b662      	cpsie	i
 80029a8:	e7ce      	b.n	8002948 <HAL_I2C_Master_Receive+0x210>
 80029aa:	bf00      	nop
 80029ac:	00100002 	.word	0x00100002
 80029b0:	ffff0000 	.word	0xffff0000
 80029b4:	00010002 	.word	0x00010002
 80029b8:	00010004 	.word	0x00010004
 80029bc:	20000000 	.word	0x20000000
 80029c0:	00010008 	.word	0x00010008
 80029c4:	f7ff fc50 	bl	8002268 <I2C_WaitOnFlagUntilTimeout>
 80029c8:	2800      	cmp	r0, #0
 80029ca:	f47f af1b 	bne.w	8002804 <HAL_I2C_Master_Receive+0xcc>
 80029ce:	6822      	ldr	r2, [r4, #0]
 80029d0:	6813      	ldr	r3, [r2, #0]
 80029d2:	f423 6380 	bic.w	r3, r3, #1024	; 0x400
 80029d6:	6013      	str	r3, [r2, #0]
 80029d8:	b672      	cpsid	i
 80029da:	f246 11a8 	movw	r1, #25000	; 0x61a8
 80029de:	6823      	ldr	r3, [r4, #0]
 80029e0:	691a      	ldr	r2, [r3, #16]
 80029e2:	6a63      	ldr	r3, [r4, #36]	; 0x24
 80029e4:	701a      	strb	r2, [r3, #0]
 80029e6:	6a62      	ldr	r2, [r4, #36]	; 0x24
 80029e8:	1c53      	adds	r3, r2, #1
 80029ea:	6263      	str	r3, [r4, #36]	; 0x24
 80029ec:	8d23      	ldrh	r3, [r4, #40]	; 0x28
 80029ee:	3b01      	subs	r3, #1
 80029f0:	8523      	strh	r3, [r4, #40]	; 0x28
 80029f2:	8d63      	ldrh	r3, [r4, #42]	; 0x2a
 80029f4:	3b01      	subs	r3, #1
 80029f6:	b29b      	uxth	r3, r3
 80029f8:	8563      	strh	r3, [r4, #42]	; 0x2a
 80029fa:	f8d9 3000 	ldr.w	r3, [r9]
 80029fe:	fbb3 f3f1 	udiv	r3, r3, r1
 8002a02:	2123      	movs	r1, #35	; 0x23
 8002a04:	434b      	muls	r3, r1
 8002a06:	9302      	str	r3, [sp, #8]
 8002a08:	9b02      	ldr	r3, [sp, #8]
 8002a0a:	3b01      	subs	r3, #1
 8002a0c:	9302      	str	r3, [sp, #8]
 8002a0e:	9b02      	ldr	r3, [sp, #8]
 8002a10:	b96b      	cbnz	r3, 8002a2e <HAL_I2C_Master_Receive+0x2f6>
 8002a12:	2220      	movs	r2, #32
 8002a14:	6323      	str	r3, [r4, #48]	; 0x30
 8002a16:	f884 203d 	strb.w	r2, [r4, #61]	; 0x3d
 8002a1a:	f884 303e 	strb.w	r3, [r4, #62]	; 0x3e
 8002a1e:	6c22      	ldr	r2, [r4, #64]	; 0x40
 8002a20:	f042 0220 	orr.w	r2, r2, #32
 8002a24:	6422      	str	r2, [r4, #64]	; 0x40
 8002a26:	b662      	cpsie	i
 8002a28:	f884 303c 	strb.w	r3, [r4, #60]	; 0x3c
 8002a2c:	e6ea      	b.n	8002804 <HAL_I2C_Master_Receive+0xcc>
 8002a2e:	6823      	ldr	r3, [r4, #0]
 8002a30:	6959      	ldr	r1, [r3, #20]
 8002a32:	0748      	lsls	r0, r1, #29
 8002a34:	d5e8      	bpl.n	8002a08 <HAL_I2C_Master_Receive+0x2d0>
 8002a36:	6819      	ldr	r1, [r3, #0]
 8002a38:	f441 7100 	orr.w	r1, r1, #512	; 0x200
 8002a3c:	6019      	str	r1, [r3, #0]
 8002a3e:	691b      	ldr	r3, [r3, #16]
 8002a40:	7053      	strb	r3, [r2, #1]
 8002a42:	e7a6      	b.n	8002992 <HAL_I2C_Master_Receive+0x25a>
 8002a44:	4632      	mov	r2, r6
 8002a46:	4639      	mov	r1, r7
 8002a48:	4620      	mov	r0, r4
 8002a4a:	f7ff fc7a 	bl	8002342 <I2C_WaitOnRXNEFlagUntilTimeout>
 8002a4e:	2800      	cmp	r0, #0
 8002a50:	f47f aed8 	bne.w	8002804 <HAL_I2C_Master_Receive+0xcc>
 8002a54:	6823      	ldr	r3, [r4, #0]
 8002a56:	691a      	ldr	r2, [r3, #16]
 8002a58:	6a63      	ldr	r3, [r4, #36]	; 0x24
 8002a5a:	701a      	strb	r2, [r3, #0]
 8002a5c:	6a62      	ldr	r2, [r4, #36]	; 0x24
 8002a5e:	1c53      	adds	r3, r2, #1
 8002a60:	6263      	str	r3, [r4, #36]	; 0x24
 8002a62:	8d23      	ldrh	r3, [r4, #40]	; 0x28
 8002a64:	3b01      	subs	r3, #1
 8002a66:	8523      	strh	r3, [r4, #40]	; 0x28
 8002a68:	8d63      	ldrh	r3, [r4, #42]	; 0x2a
 8002a6a:	3b01      	subs	r3, #1
 8002a6c:	b29b      	uxth	r3, r3
 8002a6e:	8563      	strh	r3, [r4, #42]	; 0x2a
 8002a70:	6823      	ldr	r3, [r4, #0]
 8002a72:	6959      	ldr	r1, [r3, #20]
 8002a74:	0749      	lsls	r1, r1, #29
 8002a76:	f57f aeea 	bpl.w	800284e <HAL_I2C_Master_Receive+0x116>
 8002a7a:	691b      	ldr	r3, [r3, #16]
 8002a7c:	7053      	strb	r3, [r2, #1]
 8002a7e:	e767      	b.n	8002950 <HAL_I2C_Master_Receive+0x218>

08002a80 <HAL_IWDG_Init>:
 8002a80:	b538      	push	{r3, r4, r5, lr}
 8002a82:	4604      	mov	r4, r0
 8002a84:	b308      	cbz	r0, 8002aca <HAL_IWDG_Init+0x4a>
 8002a86:	f64c 42cc 	movw	r2, #52428	; 0xcccc
 8002a8a:	6803      	ldr	r3, [r0, #0]
 8002a8c:	601a      	str	r2, [r3, #0]
 8002a8e:	f245 5255 	movw	r2, #21845	; 0x5555
 8002a92:	601a      	str	r2, [r3, #0]
 8002a94:	6842      	ldr	r2, [r0, #4]
 8002a96:	605a      	str	r2, [r3, #4]
 8002a98:	6882      	ldr	r2, [r0, #8]
 8002a9a:	609a      	str	r2, [r3, #8]
 8002a9c:	f7ff fa7c 	bl	8001f98 <HAL_GetTick>
 8002aa0:	4605      	mov	r5, r0
 8002aa2:	6822      	ldr	r2, [r4, #0]
 8002aa4:	68d0      	ldr	r0, [r2, #12]
 8002aa6:	f010 0003 	ands.w	r0, r0, #3
 8002aaa:	d103      	bne.n	8002ab4 <HAL_IWDG_Init+0x34>
 8002aac:	f64a 23aa 	movw	r3, #43690	; 0xaaaa
 8002ab0:	6013      	str	r3, [r2, #0]
 8002ab2:	bd38      	pop	{r3, r4, r5, pc}
 8002ab4:	f7ff fa70 	bl	8001f98 <HAL_GetTick>
 8002ab8:	1b40      	subs	r0, r0, r5
 8002aba:	2827      	cmp	r0, #39	; 0x27
 8002abc:	d9f1      	bls.n	8002aa2 <HAL_IWDG_Init+0x22>
 8002abe:	6823      	ldr	r3, [r4, #0]
 8002ac0:	68db      	ldr	r3, [r3, #12]
 8002ac2:	079b      	lsls	r3, r3, #30
 8002ac4:	d0ed      	beq.n	8002aa2 <HAL_IWDG_Init+0x22>
 8002ac6:	2003      	movs	r0, #3
 8002ac8:	e7f3      	b.n	8002ab2 <HAL_IWDG_Init+0x32>
 8002aca:	2001      	movs	r0, #1
 8002acc:	e7f1      	b.n	8002ab2 <HAL_IWDG_Init+0x32>

08002ace <HAL_IWDG_Refresh>:
 8002ace:	f64a 22aa 	movw	r2, #43690	; 0xaaaa
 8002ad2:	6803      	ldr	r3, [r0, #0]
 8002ad4:	2000      	movs	r0, #0
 8002ad6:	601a      	str	r2, [r3, #0]
 8002ad8:	4770      	bx	lr
	...

08002adc <HAL_RCC_OscConfig>:
 8002adc:	e92d 41f3 	stmdb	sp!, {r0, r1, r4, r5, r6, r7, r8, lr}
 8002ae0:	4605      	mov	r5, r0
 8002ae2:	b338      	cbz	r0, 8002b34 <HAL_RCC_OscConfig+0x58>
 8002ae4:	6803      	ldr	r3, [r0, #0]
 8002ae6:	07db      	lsls	r3, r3, #31
 8002ae8:	d410      	bmi.n	8002b0c <HAL_RCC_OscConfig+0x30>
 8002aea:	682b      	ldr	r3, [r5, #0]
 8002aec:	079f      	lsls	r7, r3, #30
 8002aee:	d45e      	bmi.n	8002bae <HAL_RCC_OscConfig+0xd2>
 8002af0:	682b      	ldr	r3, [r5, #0]
 8002af2:	0719      	lsls	r1, r3, #28
 8002af4:	f100 8095 	bmi.w	8002c22 <HAL_RCC_OscConfig+0x146>
 8002af8:	682b      	ldr	r3, [r5, #0]
 8002afa:	075a      	lsls	r2, r3, #29
 8002afc:	f100 80c1 	bmi.w	8002c82 <HAL_RCC_OscConfig+0x1a6>
 8002b00:	69e8      	ldr	r0, [r5, #28]
 8002b02:	2800      	cmp	r0, #0
 8002b04:	f040 812c 	bne.w	8002d60 <HAL_RCC_OscConfig+0x284>
 8002b08:	2000      	movs	r0, #0
 8002b0a:	e029      	b.n	8002b60 <HAL_RCC_OscConfig+0x84>
 8002b0c:	4c90      	ldr	r4, [pc, #576]	; (8002d50 <HAL_RCC_OscConfig+0x274>)
 8002b0e:	6863      	ldr	r3, [r4, #4]
 8002b10:	f003 030c 	and.w	r3, r3, #12
 8002b14:	2b04      	cmp	r3, #4
 8002b16:	d007      	beq.n	8002b28 <HAL_RCC_OscConfig+0x4c>
 8002b18:	6863      	ldr	r3, [r4, #4]
 8002b1a:	f003 030c 	and.w	r3, r3, #12
 8002b1e:	2b08      	cmp	r3, #8
 8002b20:	d10a      	bne.n	8002b38 <HAL_RCC_OscConfig+0x5c>
 8002b22:	6863      	ldr	r3, [r4, #4]
 8002b24:	03de      	lsls	r6, r3, #15
 8002b26:	d507      	bpl.n	8002b38 <HAL_RCC_OscConfig+0x5c>
 8002b28:	6823      	ldr	r3, [r4, #0]
 8002b2a:	039c      	lsls	r4, r3, #14
 8002b2c:	d5dd      	bpl.n	8002aea <HAL_RCC_OscConfig+0xe>
 8002b2e:	686b      	ldr	r3, [r5, #4]
 8002b30:	2b00      	cmp	r3, #0
 8002b32:	d1da      	bne.n	8002aea <HAL_RCC_OscConfig+0xe>
 8002b34:	2001      	movs	r0, #1
 8002b36:	e013      	b.n	8002b60 <HAL_RCC_OscConfig+0x84>
 8002b38:	686b      	ldr	r3, [r5, #4]
 8002b3a:	f5b3 3f80 	cmp.w	r3, #65536	; 0x10000
 8002b3e:	d112      	bne.n	8002b66 <HAL_RCC_OscConfig+0x8a>
 8002b40:	6823      	ldr	r3, [r4, #0]
 8002b42:	f443 3380 	orr.w	r3, r3, #65536	; 0x10000
 8002b46:	6023      	str	r3, [r4, #0]
 8002b48:	f7ff fa26 	bl	8001f98 <HAL_GetTick>
 8002b4c:	4606      	mov	r6, r0
 8002b4e:	6823      	ldr	r3, [r4, #0]
 8002b50:	0398      	lsls	r0, r3, #14
 8002b52:	d4ca      	bmi.n	8002aea <HAL_RCC_OscConfig+0xe>
 8002b54:	f7ff fa20 	bl	8001f98 <HAL_GetTick>
 8002b58:	1b80      	subs	r0, r0, r6
 8002b5a:	2864      	cmp	r0, #100	; 0x64
 8002b5c:	d9f7      	bls.n	8002b4e <HAL_RCC_OscConfig+0x72>
 8002b5e:	2003      	movs	r0, #3
 8002b60:	b002      	add	sp, #8
 8002b62:	e8bd 81f0 	ldmia.w	sp!, {r4, r5, r6, r7, r8, pc}
 8002b66:	b99b      	cbnz	r3, 8002b90 <HAL_RCC_OscConfig+0xb4>
 8002b68:	6823      	ldr	r3, [r4, #0]
 8002b6a:	f423 3380 	bic.w	r3, r3, #65536	; 0x10000
 8002b6e:	6023      	str	r3, [r4, #0]
 8002b70:	6823      	ldr	r3, [r4, #0]
 8002b72:	f423 2380 	bic.w	r3, r3, #262144	; 0x40000
 8002b76:	6023      	str	r3, [r4, #0]
 8002b78:	f7ff fa0e 	bl	8001f98 <HAL_GetTick>
 8002b7c:	4606      	mov	r6, r0
 8002b7e:	6823      	ldr	r3, [r4, #0]
 8002b80:	0399      	lsls	r1, r3, #14
 8002b82:	d5b2      	bpl.n	8002aea <HAL_RCC_OscConfig+0xe>
 8002b84:	f7ff fa08 	bl	8001f98 <HAL_GetTick>
 8002b88:	1b80      	subs	r0, r0, r6
 8002b8a:	2864      	cmp	r0, #100	; 0x64
 8002b8c:	d9f7      	bls.n	8002b7e <HAL_RCC_OscConfig+0xa2>
 8002b8e:	e7e6      	b.n	8002b5e <HAL_RCC_OscConfig+0x82>
 8002b90:	f5b3 2fa0 	cmp.w	r3, #327680	; 0x50000
 8002b94:	6823      	ldr	r3, [r4, #0]
 8002b96:	d103      	bne.n	8002ba0 <HAL_RCC_OscConfig+0xc4>
 8002b98:	f443 2380 	orr.w	r3, r3, #262144	; 0x40000
 8002b9c:	6023      	str	r3, [r4, #0]
 8002b9e:	e7cf      	b.n	8002b40 <HAL_RCC_OscConfig+0x64>
 8002ba0:	f423 3380 	bic.w	r3, r3, #65536	; 0x10000
 8002ba4:	6023      	str	r3, [r4, #0]
 8002ba6:	6823      	ldr	r3, [r4, #0]
 8002ba8:	f423 2380 	bic.w	r3, r3, #262144	; 0x40000
 8002bac:	e7cb      	b.n	8002b46 <HAL_RCC_OscConfig+0x6a>
 8002bae:	4c68      	ldr	r4, [pc, #416]	; (8002d50 <HAL_RCC_OscConfig+0x274>)
 8002bb0:	6863      	ldr	r3, [r4, #4]
 8002bb2:	f013 0f0c 	tst.w	r3, #12
 8002bb6:	d007      	beq.n	8002bc8 <HAL_RCC_OscConfig+0xec>
 8002bb8:	6863      	ldr	r3, [r4, #4]
 8002bba:	f003 030c 	and.w	r3, r3, #12
 8002bbe:	2b08      	cmp	r3, #8
 8002bc0:	d110      	bne.n	8002be4 <HAL_RCC_OscConfig+0x108>
 8002bc2:	6863      	ldr	r3, [r4, #4]
 8002bc4:	03da      	lsls	r2, r3, #15
 8002bc6:	d40d      	bmi.n	8002be4 <HAL_RCC_OscConfig+0x108>
 8002bc8:	6823      	ldr	r3, [r4, #0]
 8002bca:	079b      	lsls	r3, r3, #30
 8002bcc:	d502      	bpl.n	8002bd4 <HAL_RCC_OscConfig+0xf8>
 8002bce:	692b      	ldr	r3, [r5, #16]
 8002bd0:	2b01      	cmp	r3, #1
 8002bd2:	d1af      	bne.n	8002b34 <HAL_RCC_OscConfig+0x58>
 8002bd4:	6823      	ldr	r3, [r4, #0]
 8002bd6:	696a      	ldr	r2, [r5, #20]
 8002bd8:	f023 03f8 	bic.w	r3, r3, #248	; 0xf8
 8002bdc:	ea43 03c2 	orr.w	r3, r3, r2, lsl #3
 8002be0:	6023      	str	r3, [r4, #0]
 8002be2:	e785      	b.n	8002af0 <HAL_RCC_OscConfig+0x14>
 8002be4:	692a      	ldr	r2, [r5, #16]
 8002be6:	4b5b      	ldr	r3, [pc, #364]	; (8002d54 <HAL_RCC_OscConfig+0x278>)
 8002be8:	b16a      	cbz	r2, 8002c06 <HAL_RCC_OscConfig+0x12a>
 8002bea:	2201      	movs	r2, #1
 8002bec:	601a      	str	r2, [r3, #0]
 8002bee:	f7ff f9d3 	bl	8001f98 <HAL_GetTick>
 8002bf2:	4606      	mov	r6, r0
 8002bf4:	6823      	ldr	r3, [r4, #0]
 8002bf6:	079f      	lsls	r7, r3, #30
 8002bf8:	d4ec      	bmi.n	8002bd4 <HAL_RCC_OscConfig+0xf8>
 8002bfa:	f7ff f9cd 	bl	8001f98 <HAL_GetTick>
 8002bfe:	1b80      	subs	r0, r0, r6
 8002c00:	2802      	cmp	r0, #2
 8002c02:	d9f7      	bls.n	8002bf4 <HAL_RCC_OscConfig+0x118>
 8002c04:	e7ab      	b.n	8002b5e <HAL_RCC_OscConfig+0x82>
 8002c06:	601a      	str	r2, [r3, #0]
 8002c08:	f7ff f9c6 	bl	8001f98 <HAL_GetTick>
 8002c0c:	4606      	mov	r6, r0
 8002c0e:	6823      	ldr	r3, [r4, #0]
 8002c10:	0798      	lsls	r0, r3, #30
 8002c12:	f57f af6d 	bpl.w	8002af0 <HAL_RCC_OscConfig+0x14>
 8002c16:	f7ff f9bf 	bl	8001f98 <HAL_GetTick>
 8002c1a:	1b80      	subs	r0, r0, r6
 8002c1c:	2802      	cmp	r0, #2
 8002c1e:	d9f6      	bls.n	8002c0e <HAL_RCC_OscConfig+0x132>
 8002c20:	e79d      	b.n	8002b5e <HAL_RCC_OscConfig+0x82>
 8002c22:	69aa      	ldr	r2, [r5, #24]
 8002c24:	4e4a      	ldr	r6, [pc, #296]	; (8002d50 <HAL_RCC_OscConfig+0x274>)
 8002c26:	4b4b      	ldr	r3, [pc, #300]	; (8002d54 <HAL_RCC_OscConfig+0x278>)
 8002c28:	b1e2      	cbz	r2, 8002c64 <HAL_RCC_OscConfig+0x188>
 8002c2a:	2201      	movs	r2, #1
 8002c2c:	f8c3 2480 	str.w	r2, [r3, #1152]	; 0x480
 8002c30:	f7ff f9b2 	bl	8001f98 <HAL_GetTick>
 8002c34:	4604      	mov	r4, r0
 8002c36:	6a73      	ldr	r3, [r6, #36]	; 0x24
 8002c38:	079b      	lsls	r3, r3, #30
 8002c3a:	d50d      	bpl.n	8002c58 <HAL_RCC_OscConfig+0x17c>
 8002c3c:	f44f 52fa 	mov.w	r2, #8000	; 0x1f40
 8002c40:	4b45      	ldr	r3, [pc, #276]	; (8002d58 <HAL_RCC_OscConfig+0x27c>)
 8002c42:	681b      	ldr	r3, [r3, #0]
 8002c44:	fbb3 f3f2 	udiv	r3, r3, r2
 8002c48:	9301      	str	r3, [sp, #4]
 8002c4a:	bf00      	nop
 8002c4c:	9b01      	ldr	r3, [sp, #4]
 8002c4e:	1e5a      	subs	r2, r3, #1
 8002c50:	9201      	str	r2, [sp, #4]
 8002c52:	2b00      	cmp	r3, #0
 8002c54:	d1f9      	bne.n	8002c4a <HAL_RCC_OscConfig+0x16e>
 8002c56:	e74f      	b.n	8002af8 <HAL_RCC_OscConfig+0x1c>
 8002c58:	f7ff f99e 	bl	8001f98 <HAL_GetTick>
 8002c5c:	1b00      	subs	r0, r0, r4
 8002c5e:	2802      	cmp	r0, #2
 8002c60:	d9e9      	bls.n	8002c36 <HAL_RCC_OscConfig+0x15a>
 8002c62:	e77c      	b.n	8002b5e <HAL_RCC_OscConfig+0x82>
 8002c64:	f8c3 2480 	str.w	r2, [r3, #1152]	; 0x480
 8002c68:	f7ff f996 	bl	8001f98 <HAL_GetTick>
 8002c6c:	4604      	mov	r4, r0
 8002c6e:	6a73      	ldr	r3, [r6, #36]	; 0x24
 8002c70:	079f      	lsls	r7, r3, #30
 8002c72:	f57f af41 	bpl.w	8002af8 <HAL_RCC_OscConfig+0x1c>
 8002c76:	f7ff f98f 	bl	8001f98 <HAL_GetTick>
 8002c7a:	1b00      	subs	r0, r0, r4
 8002c7c:	2802      	cmp	r0, #2
 8002c7e:	d9f6      	bls.n	8002c6e <HAL_RCC_OscConfig+0x192>
 8002c80:	e76d      	b.n	8002b5e <HAL_RCC_OscConfig+0x82>
 8002c82:	4c33      	ldr	r4, [pc, #204]	; (8002d50 <HAL_RCC_OscConfig+0x274>)
 8002c84:	69e3      	ldr	r3, [r4, #28]
 8002c86:	00d8      	lsls	r0, r3, #3
 8002c88:	d424      	bmi.n	8002cd4 <HAL_RCC_OscConfig+0x1f8>
 8002c8a:	2701      	movs	r7, #1
 8002c8c:	69e3      	ldr	r3, [r4, #28]
 8002c8e:	f043 5380 	orr.w	r3, r3, #268435456	; 0x10000000
 8002c92:	61e3      	str	r3, [r4, #28]
 8002c94:	69e3      	ldr	r3, [r4, #28]
 8002c96:	f003 5380 	and.w	r3, r3, #268435456	; 0x10000000
 8002c9a:	9300      	str	r3, [sp, #0]
 8002c9c:	9b00      	ldr	r3, [sp, #0]
 8002c9e:	4e2f      	ldr	r6, [pc, #188]	; (8002d5c <HAL_RCC_OscConfig+0x280>)
 8002ca0:	6833      	ldr	r3, [r6, #0]
 8002ca2:	05d9      	lsls	r1, r3, #23
 8002ca4:	d518      	bpl.n	8002cd8 <HAL_RCC_OscConfig+0x1fc>
 8002ca6:	68eb      	ldr	r3, [r5, #12]
 8002ca8:	2b01      	cmp	r3, #1
 8002caa:	d126      	bne.n	8002cfa <HAL_RCC_OscConfig+0x21e>
 8002cac:	6a23      	ldr	r3, [r4, #32]
 8002cae:	f043 0301 	orr.w	r3, r3, #1
 8002cb2:	6223      	str	r3, [r4, #32]
 8002cb4:	f7ff f970 	bl	8001f98 <HAL_GetTick>
 8002cb8:	f241 3888 	movw	r8, #5000	; 0x1388
 8002cbc:	4606      	mov	r6, r0
 8002cbe:	6a23      	ldr	r3, [r4, #32]
 8002cc0:	079b      	lsls	r3, r3, #30
 8002cc2:	d53f      	bpl.n	8002d44 <HAL_RCC_OscConfig+0x268>
 8002cc4:	2f00      	cmp	r7, #0
 8002cc6:	f43f af1b 	beq.w	8002b00 <HAL_RCC_OscConfig+0x24>
 8002cca:	69e3      	ldr	r3, [r4, #28]
 8002ccc:	f023 5380 	bic.w	r3, r3, #268435456	; 0x10000000
 8002cd0:	61e3      	str	r3, [r4, #28]
 8002cd2:	e715      	b.n	8002b00 <HAL_RCC_OscConfig+0x24>
 8002cd4:	2700      	movs	r7, #0
 8002cd6:	e7e2      	b.n	8002c9e <HAL_RCC_OscConfig+0x1c2>
 8002cd8:	6833      	ldr	r3, [r6, #0]
 8002cda:	f443 7380 	orr.w	r3, r3, #256	; 0x100
 8002cde:	6033      	str	r3, [r6, #0]
 8002ce0:	f7ff f95a 	bl	8001f98 <HAL_GetTick>
 8002ce4:	4680      	mov	r8, r0
 8002ce6:	6833      	ldr	r3, [r6, #0]
 8002ce8:	05da      	lsls	r2, r3, #23
 8002cea:	d4dc      	bmi.n	8002ca6 <HAL_RCC_OscConfig+0x1ca>
 8002cec:	f7ff f954 	bl	8001f98 <HAL_GetTick>
 8002cf0:	eba0 0008 	sub.w	r0, r0, r8
 8002cf4:	2864      	cmp	r0, #100	; 0x64
 8002cf6:	d9f6      	bls.n	8002ce6 <HAL_RCC_OscConfig+0x20a>
 8002cf8:	e731      	b.n	8002b5e <HAL_RCC_OscConfig+0x82>
 8002cfa:	b9ab      	cbnz	r3, 8002d28 <HAL_RCC_OscConfig+0x24c>
 8002cfc:	6a23      	ldr	r3, [r4, #32]
 8002cfe:	f241 3888 	movw	r8, #5000	; 0x1388
 8002d02:	f023 0301 	bic.w	r3, r3, #1
 8002d06:	6223      	str	r3, [r4, #32]
 8002d08:	6a23      	ldr	r3, [r4, #32]
 8002d0a:	f023 0304 	bic.w	r3, r3, #4
 8002d0e:	6223      	str	r3, [r4, #32]
 8002d10:	f7ff f942 	bl	8001f98 <HAL_GetTick>
 8002d14:	4606      	mov	r6, r0
 8002d16:	6a23      	ldr	r3, [r4, #32]
 8002d18:	0798      	lsls	r0, r3, #30
 8002d1a:	d5d3      	bpl.n	8002cc4 <HAL_RCC_OscConfig+0x1e8>
 8002d1c:	f7ff f93c 	bl	8001f98 <HAL_GetTick>
 8002d20:	1b80      	subs	r0, r0, r6
 8002d22:	4540      	cmp	r0, r8
 8002d24:	d9f7      	bls.n	8002d16 <HAL_RCC_OscConfig+0x23a>
 8002d26:	e71a      	b.n	8002b5e <HAL_RCC_OscConfig+0x82>
 8002d28:	2b05      	cmp	r3, #5
 8002d2a:	6a23      	ldr	r3, [r4, #32]
 8002d2c:	d103      	bne.n	8002d36 <HAL_RCC_OscConfig+0x25a>
 8002d2e:	f043 0304 	orr.w	r3, r3, #4
 8002d32:	6223      	str	r3, [r4, #32]
 8002d34:	e7ba      	b.n	8002cac <HAL_RCC_OscConfig+0x1d0>
 8002d36:	f023 0301 	bic.w	r3, r3, #1
 8002d3a:	6223      	str	r3, [r4, #32]
 8002d3c:	6a23      	ldr	r3, [r4, #32]
 8002d3e:	f023 0304 	bic.w	r3, r3, #4
 8002d42:	e7b6      	b.n	8002cb2 <HAL_RCC_OscConfig+0x1d6>
 8002d44:	f7ff f928 	bl	8001f98 <HAL_GetTick>
 8002d48:	1b80      	subs	r0, r0, r6
 8002d4a:	4540      	cmp	r0, r8
 8002d4c:	d9b7      	bls.n	8002cbe <HAL_RCC_OscConfig+0x1e2>
 8002d4e:	e706      	b.n	8002b5e <HAL_RCC_OscConfig+0x82>
 8002d50:	40021000 	.word	0x40021000
 8002d54:	42420000 	.word	0x42420000
 8002d58:	20000000 	.word	0x20000000
 8002d5c:	40007000 	.word	0x40007000
 8002d60:	4c2a      	ldr	r4, [pc, #168]	; (8002e0c <HAL_RCC_OscConfig+0x330>)
 8002d62:	6863      	ldr	r3, [r4, #4]
 8002d64:	f003 030c 	and.w	r3, r3, #12
 8002d68:	2b08      	cmp	r3, #8
 8002d6a:	d03e      	beq.n	8002dea <HAL_RCC_OscConfig+0x30e>
 8002d6c:	2200      	movs	r2, #0
 8002d6e:	4b28      	ldr	r3, [pc, #160]	; (8002e10 <HAL_RCC_OscConfig+0x334>)
 8002d70:	2802      	cmp	r0, #2
 8002d72:	661a      	str	r2, [r3, #96]	; 0x60
 8002d74:	d12c      	bne.n	8002dd0 <HAL_RCC_OscConfig+0x2f4>
 8002d76:	f7ff f90f 	bl	8001f98 <HAL_GetTick>
 8002d7a:	4606      	mov	r6, r0
 8002d7c:	6823      	ldr	r3, [r4, #0]
 8002d7e:	0199      	lsls	r1, r3, #6
 8002d80:	d420      	bmi.n	8002dc4 <HAL_RCC_OscConfig+0x2e8>
 8002d82:	6a2b      	ldr	r3, [r5, #32]
 8002d84:	f5b3 3f80 	cmp.w	r3, #65536	; 0x10000
 8002d88:	d105      	bne.n	8002d96 <HAL_RCC_OscConfig+0x2ba>
 8002d8a:	6862      	ldr	r2, [r4, #4]
 8002d8c:	68a9      	ldr	r1, [r5, #8]
 8002d8e:	f422 3200 	bic.w	r2, r2, #131072	; 0x20000
 8002d92:	430a      	orrs	r2, r1
 8002d94:	6062      	str	r2, [r4, #4]
 8002d96:	6a69      	ldr	r1, [r5, #36]	; 0x24
 8002d98:	6862      	ldr	r2, [r4, #4]
 8002d9a:	430b      	orrs	r3, r1
 8002d9c:	f422 1274 	bic.w	r2, r2, #3997696	; 0x3d0000
 8002da0:	4313      	orrs	r3, r2
 8002da2:	2201      	movs	r2, #1
 8002da4:	6063      	str	r3, [r4, #4]
 8002da6:	4b1a      	ldr	r3, [pc, #104]	; (8002e10 <HAL_RCC_OscConfig+0x334>)
 8002da8:	661a      	str	r2, [r3, #96]	; 0x60
 8002daa:	f7ff f8f5 	bl	8001f98 <HAL_GetTick>
 8002dae:	4605      	mov	r5, r0
 8002db0:	6823      	ldr	r3, [r4, #0]
 8002db2:	019a      	lsls	r2, r3, #6
 8002db4:	f53f aea8 	bmi.w	8002b08 <HAL_RCC_OscConfig+0x2c>
 8002db8:	f7ff f8ee 	bl	8001f98 <HAL_GetTick>
 8002dbc:	1b40      	subs	r0, r0, r5
 8002dbe:	2802      	cmp	r0, #2
 8002dc0:	d9f6      	bls.n	8002db0 <HAL_RCC_OscConfig+0x2d4>
 8002dc2:	e6cc      	b.n	8002b5e <HAL_RCC_OscConfig+0x82>
 8002dc4:	f7ff f8e8 	bl	8001f98 <HAL_GetTick>
 8002dc8:	1b80      	subs	r0, r0, r6
 8002dca:	2802      	cmp	r0, #2
 8002dcc:	d9d6      	bls.n	8002d7c <HAL_RCC_OscConfig+0x2a0>
 8002dce:	e6c6      	b.n	8002b5e <HAL_RCC_OscConfig+0x82>
 8002dd0:	f7ff f8e2 	bl	8001f98 <HAL_GetTick>
 8002dd4:	4605      	mov	r5, r0
 8002dd6:	6823      	ldr	r3, [r4, #0]
 8002dd8:	019b      	lsls	r3, r3, #6
 8002dda:	f57f ae95 	bpl.w	8002b08 <HAL_RCC_OscConfig+0x2c>
 8002dde:	f7ff f8db 	bl	8001f98 <HAL_GetTick>
 8002de2:	1b40      	subs	r0, r0, r5
 8002de4:	2802      	cmp	r0, #2
 8002de6:	d9f6      	bls.n	8002dd6 <HAL_RCC_OscConfig+0x2fa>
 8002de8:	e6b9      	b.n	8002b5e <HAL_RCC_OscConfig+0x82>
 8002dea:	2801      	cmp	r0, #1
 8002dec:	f43f aeb8 	beq.w	8002b60 <HAL_RCC_OscConfig+0x84>
 8002df0:	6863      	ldr	r3, [r4, #4]
 8002df2:	6a2a      	ldr	r2, [r5, #32]
 8002df4:	f403 3180 	and.w	r1, r3, #65536	; 0x10000
 8002df8:	4291      	cmp	r1, r2
 8002dfa:	f47f ae9b 	bne.w	8002b34 <HAL_RCC_OscConfig+0x58>
 8002dfe:	6a6a      	ldr	r2, [r5, #36]	; 0x24
 8002e00:	f403 1370 	and.w	r3, r3, #3932160	; 0x3c0000
 8002e04:	4293      	cmp	r3, r2
 8002e06:	f43f ae7f 	beq.w	8002b08 <HAL_RCC_OscConfig+0x2c>
 8002e0a:	e693      	b.n	8002b34 <HAL_RCC_OscConfig+0x58>
 8002e0c:	40021000 	.word	0x40021000
 8002e10:	42420000 	.word	0x42420000

08002e14 <HAL_RCC_GetSysClockFreq>:
 8002e14:	b530      	push	{r4, r5, lr}
 8002e16:	4b18      	ldr	r3, [pc, #96]	; (8002e78 <HAL_RCC_GetSysClockFreq+0x64>)
 8002e18:	b087      	sub	sp, #28
 8002e1a:	ac02      	add	r4, sp, #8
 8002e1c:	f103 0510 	add.w	r5, r3, #16
 8002e20:	4622      	mov	r2, r4
 8002e22:	6818      	ldr	r0, [r3, #0]
 8002e24:	6859      	ldr	r1, [r3, #4]
 8002e26:	3308      	adds	r3, #8
 8002e28:	c203      	stmia	r2!, {r0, r1}
 8002e2a:	42ab      	cmp	r3, r5
 8002e2c:	4614      	mov	r4, r2
 8002e2e:	d1f7      	bne.n	8002e20 <HAL_RCC_GetSysClockFreq+0xc>
 8002e30:	f240 2301 	movw	r3, #513	; 0x201
 8002e34:	4911      	ldr	r1, [pc, #68]	; (8002e7c <HAL_RCC_GetSysClockFreq+0x68>)
 8002e36:	f8ad 3004 	strh.w	r3, [sp, #4]
 8002e3a:	684b      	ldr	r3, [r1, #4]
 8002e3c:	f003 020c 	and.w	r2, r3, #12
 8002e40:	2a08      	cmp	r2, #8
 8002e42:	d117      	bne.n	8002e74 <HAL_RCC_GetSysClockFreq+0x60>
 8002e44:	f3c3 4283 	ubfx	r2, r3, #18, #4
 8002e48:	3218      	adds	r2, #24
 8002e4a:	446a      	add	r2, sp
 8002e4c:	03db      	lsls	r3, r3, #15
 8002e4e:	f812 0c10 	ldrb.w	r0, [r2, #-16]
 8002e52:	d50c      	bpl.n	8002e6e <HAL_RCC_GetSysClockFreq+0x5a>
 8002e54:	684b      	ldr	r3, [r1, #4]
 8002e56:	4a0a      	ldr	r2, [pc, #40]	; (8002e80 <HAL_RCC_GetSysClockFreq+0x6c>)
 8002e58:	f3c3 4340 	ubfx	r3, r3, #17, #1
 8002e5c:	4350      	muls	r0, r2
 8002e5e:	3318      	adds	r3, #24
 8002e60:	446b      	add	r3, sp
 8002e62:	f813 3c14 	ldrb.w	r3, [r3, #-20]
 8002e66:	fbb0 f0f3 	udiv	r0, r0, r3
 8002e6a:	b007      	add	sp, #28
 8002e6c:	bd30      	pop	{r4, r5, pc}
 8002e6e:	4b05      	ldr	r3, [pc, #20]	; (8002e84 <HAL_RCC_GetSysClockFreq+0x70>)
 8002e70:	4358      	muls	r0, r3
 8002e72:	e7fa      	b.n	8002e6a <HAL_RCC_GetSysClockFreq+0x56>
 8002e74:	4802      	ldr	r0, [pc, #8]	; (8002e80 <HAL_RCC_GetSysClockFreq+0x6c>)
 8002e76:	e7f8      	b.n	8002e6a <HAL_RCC_GetSysClockFreq+0x56>
 8002e78:	08005fc4 	.word	0x08005fc4
 8002e7c:	40021000 	.word	0x40021000
 8002e80:	007a1200 	.word	0x007a1200
 8002e84:	003d0900 	.word	0x003d0900

08002e88 <HAL_RCC_ClockConfig>:
 8002e88:	e92d 41f0 	stmdb	sp!, {r4, r5, r6, r7, r8, lr}
 8002e8c:	460d      	mov	r5, r1
 8002e8e:	4604      	mov	r4, r0
 8002e90:	b910      	cbnz	r0, 8002e98 <HAL_RCC_ClockConfig+0x10>
 8002e92:	2001      	movs	r0, #1
 8002e94:	e8bd 81f0 	ldmia.w	sp!, {r4, r5, r6, r7, r8, pc}
 8002e98:	4a44      	ldr	r2, [pc, #272]	; (8002fac <HAL_RCC_ClockConfig+0x124>)
 8002e9a:	6813      	ldr	r3, [r2, #0]
 8002e9c:	f003 0307 	and.w	r3, r3, #7
 8002ea0:	428b      	cmp	r3, r1
 8002ea2:	d328      	bcc.n	8002ef6 <HAL_RCC_ClockConfig+0x6e>
 8002ea4:	6821      	ldr	r1, [r4, #0]
 8002ea6:	078e      	lsls	r6, r1, #30
 8002ea8:	d430      	bmi.n	8002f0c <HAL_RCC_ClockConfig+0x84>
 8002eaa:	07ca      	lsls	r2, r1, #31
 8002eac:	d443      	bmi.n	8002f36 <HAL_RCC_ClockConfig+0xae>
 8002eae:	4a3f      	ldr	r2, [pc, #252]	; (8002fac <HAL_RCC_ClockConfig+0x124>)
 8002eb0:	6813      	ldr	r3, [r2, #0]
 8002eb2:	f003 0307 	and.w	r3, r3, #7
 8002eb6:	42ab      	cmp	r3, r5
 8002eb8:	d865      	bhi.n	8002f86 <HAL_RCC_ClockConfig+0xfe>
 8002eba:	6822      	ldr	r2, [r4, #0]
 8002ebc:	4d3c      	ldr	r5, [pc, #240]	; (8002fb0 <HAL_RCC_ClockConfig+0x128>)
 8002ebe:	f012 0f04 	tst.w	r2, #4
 8002ec2:	d16c      	bne.n	8002f9e <HAL_RCC_ClockConfig+0x116>
 8002ec4:	0713      	lsls	r3, r2, #28
 8002ec6:	d506      	bpl.n	8002ed6 <HAL_RCC_ClockConfig+0x4e>
 8002ec8:	686b      	ldr	r3, [r5, #4]
 8002eca:	6922      	ldr	r2, [r4, #16]
 8002ecc:	f423 5360 	bic.w	r3, r3, #14336	; 0x3800
 8002ed0:	ea43 03c2 	orr.w	r3, r3, r2, lsl #3
 8002ed4:	606b      	str	r3, [r5, #4]
 8002ed6:	f7ff ff9d 	bl	8002e14 <HAL_RCC_GetSysClockFreq>
 8002eda:	686b      	ldr	r3, [r5, #4]
 8002edc:	4a35      	ldr	r2, [pc, #212]	; (8002fb4 <HAL_RCC_ClockConfig+0x12c>)
 8002ede:	f3c3 1303 	ubfx	r3, r3, #4, #4
 8002ee2:	5cd3      	ldrb	r3, [r2, r3]
 8002ee4:	40d8      	lsrs	r0, r3
 8002ee6:	4b34      	ldr	r3, [pc, #208]	; (8002fb8 <HAL_RCC_ClockConfig+0x130>)
 8002ee8:	6018      	str	r0, [r3, #0]
 8002eea:	4b34      	ldr	r3, [pc, #208]	; (8002fbc <HAL_RCC_ClockConfig+0x134>)
 8002eec:	6818      	ldr	r0, [r3, #0]
 8002eee:	f7fe ffc5 	bl	8001e7c <HAL_InitTick>
 8002ef2:	2000      	movs	r0, #0
 8002ef4:	e7ce      	b.n	8002e94 <HAL_RCC_ClockConfig+0xc>
 8002ef6:	6813      	ldr	r3, [r2, #0]
 8002ef8:	f023 0307 	bic.w	r3, r3, #7
 8002efc:	430b      	orrs	r3, r1
 8002efe:	6013      	str	r3, [r2, #0]
 8002f00:	6813      	ldr	r3, [r2, #0]
 8002f02:	f003 0307 	and.w	r3, r3, #7
 8002f06:	428b      	cmp	r3, r1
 8002f08:	d1c3      	bne.n	8002e92 <HAL_RCC_ClockConfig+0xa>
 8002f0a:	e7cb      	b.n	8002ea4 <HAL_RCC_ClockConfig+0x1c>
 8002f0c:	4b28      	ldr	r3, [pc, #160]	; (8002fb0 <HAL_RCC_ClockConfig+0x128>)
 8002f0e:	f011 0f04 	tst.w	r1, #4
 8002f12:	bf1e      	ittt	ne
 8002f14:	685a      	ldrne	r2, [r3, #4]
 8002f16:	f442 62e0 	orrne.w	r2, r2, #1792	; 0x700
 8002f1a:	605a      	strne	r2, [r3, #4]
 8002f1c:	0708      	lsls	r0, r1, #28
 8002f1e:	bf42      	ittt	mi
 8002f20:	685a      	ldrmi	r2, [r3, #4]
 8002f22:	f442 5260 	orrmi.w	r2, r2, #14336	; 0x3800
 8002f26:	605a      	strmi	r2, [r3, #4]
 8002f28:	685a      	ldr	r2, [r3, #4]
 8002f2a:	68a0      	ldr	r0, [r4, #8]
 8002f2c:	f022 02f0 	bic.w	r2, r2, #240	; 0xf0
 8002f30:	4302      	orrs	r2, r0
 8002f32:	605a      	str	r2, [r3, #4]
 8002f34:	e7b9      	b.n	8002eaa <HAL_RCC_ClockConfig+0x22>
 8002f36:	6862      	ldr	r2, [r4, #4]
 8002f38:	4e1d      	ldr	r6, [pc, #116]	; (8002fb0 <HAL_RCC_ClockConfig+0x128>)
 8002f3a:	2a01      	cmp	r2, #1
 8002f3c:	6833      	ldr	r3, [r6, #0]
 8002f3e:	d11a      	bne.n	8002f76 <HAL_RCC_ClockConfig+0xee>
 8002f40:	f413 3f00 	tst.w	r3, #131072	; 0x20000
 8002f44:	d0a5      	beq.n	8002e92 <HAL_RCC_ClockConfig+0xa>
 8002f46:	6873      	ldr	r3, [r6, #4]
 8002f48:	f241 3888 	movw	r8, #5000	; 0x1388
 8002f4c:	f023 0303 	bic.w	r3, r3, #3
 8002f50:	4313      	orrs	r3, r2
 8002f52:	6073      	str	r3, [r6, #4]
 8002f54:	f7ff f820 	bl	8001f98 <HAL_GetTick>
 8002f58:	4607      	mov	r7, r0
 8002f5a:	6873      	ldr	r3, [r6, #4]
 8002f5c:	6862      	ldr	r2, [r4, #4]
 8002f5e:	f003 030c 	and.w	r3, r3, #12
 8002f62:	ebb3 0f82 	cmp.w	r3, r2, lsl #2
 8002f66:	d0a2      	beq.n	8002eae <HAL_RCC_ClockConfig+0x26>
 8002f68:	f7ff f816 	bl	8001f98 <HAL_GetTick>
 8002f6c:	1bc0      	subs	r0, r0, r7
 8002f6e:	4540      	cmp	r0, r8
 8002f70:	d9f3      	bls.n	8002f5a <HAL_RCC_ClockConfig+0xd2>
 8002f72:	2003      	movs	r0, #3
 8002f74:	e78e      	b.n	8002e94 <HAL_RCC_ClockConfig+0xc>
 8002f76:	2a02      	cmp	r2, #2
 8002f78:	d102      	bne.n	8002f80 <HAL_RCC_ClockConfig+0xf8>
 8002f7a:	f013 7f00 	tst.w	r3, #33554432	; 0x2000000
 8002f7e:	e7e1      	b.n	8002f44 <HAL_RCC_ClockConfig+0xbc>
 8002f80:	f013 0f02 	tst.w	r3, #2
 8002f84:	e7de      	b.n	8002f44 <HAL_RCC_ClockConfig+0xbc>
 8002f86:	6813      	ldr	r3, [r2, #0]
 8002f88:	f023 0307 	bic.w	r3, r3, #7
 8002f8c:	432b      	orrs	r3, r5
 8002f8e:	6013      	str	r3, [r2, #0]
 8002f90:	6813      	ldr	r3, [r2, #0]
 8002f92:	f003 0307 	and.w	r3, r3, #7
 8002f96:	42ab      	cmp	r3, r5
 8002f98:	f47f af7b 	bne.w	8002e92 <HAL_RCC_ClockConfig+0xa>
 8002f9c:	e78d      	b.n	8002eba <HAL_RCC_ClockConfig+0x32>
 8002f9e:	686b      	ldr	r3, [r5, #4]
 8002fa0:	68e1      	ldr	r1, [r4, #12]
 8002fa2:	f423 63e0 	bic.w	r3, r3, #1792	; 0x700
 8002fa6:	430b      	orrs	r3, r1
 8002fa8:	606b      	str	r3, [r5, #4]
 8002faa:	e78b      	b.n	8002ec4 <HAL_RCC_ClockConfig+0x3c>
 8002fac:	40022000 	.word	0x40022000
 8002fb0:	40021000 	.word	0x40021000
 8002fb4:	08005fac 	.word	0x08005fac
 8002fb8:	20000000 	.word	0x20000000
 8002fbc:	20000008 	.word	0x20000008

08002fc0 <HAL_RCC_GetPCLK1Freq>:
 8002fc0:	4b04      	ldr	r3, [pc, #16]	; (8002fd4 <HAL_RCC_GetPCLK1Freq+0x14>)
 8002fc2:	4a05      	ldr	r2, [pc, #20]	; (8002fd8 <HAL_RCC_GetPCLK1Freq+0x18>)
 8002fc4:	685b      	ldr	r3, [r3, #4]
 8002fc6:	f3c3 2302 	ubfx	r3, r3, #8, #3
 8002fca:	5cd3      	ldrb	r3, [r2, r3]
 8002fcc:	4a03      	ldr	r2, [pc, #12]	; (8002fdc <HAL_RCC_GetPCLK1Freq+0x1c>)
 8002fce:	6810      	ldr	r0, [r2, #0]
 8002fd0:	40d8      	lsrs	r0, r3
 8002fd2:	4770      	bx	lr
 8002fd4:	40021000 	.word	0x40021000
 8002fd8:	08005fbc 	.word	0x08005fbc
 8002fdc:	20000000 	.word	0x20000000

08002fe0 <HAL_RCC_GetPCLK2Freq>:
 8002fe0:	4b04      	ldr	r3, [pc, #16]	; (8002ff4 <HAL_RCC_GetPCLK2Freq+0x14>)
 8002fe2:	4a05      	ldr	r2, [pc, #20]	; (8002ff8 <HAL_RCC_GetPCLK2Freq+0x18>)
 8002fe4:	685b      	ldr	r3, [r3, #4]
 8002fe6:	f3c3 23c2 	ubfx	r3, r3, #11, #3
 8002fea:	5cd3      	ldrb	r3, [r2, r3]
 8002fec:	4a03      	ldr	r2, [pc, #12]	; (8002ffc <HAL_RCC_GetPCLK2Freq+0x1c>)
 8002fee:	6810      	ldr	r0, [r2, #0]
 8002ff0:	40d8      	lsrs	r0, r3
 8002ff2:	4770      	bx	lr
 8002ff4:	40021000 	.word	0x40021000
 8002ff8:	08005fbc 	.word	0x08005fbc
 8002ffc:	20000000 	.word	0x20000000

08003000 <HAL_RCC_GetClockConfig>:
 8003000:	230f      	movs	r3, #15
 8003002:	6003      	str	r3, [r0, #0]
 8003004:	4b0b      	ldr	r3, [pc, #44]	; (8003034 <HAL_RCC_GetClockConfig+0x34>)
 8003006:	685a      	ldr	r2, [r3, #4]
 8003008:	f002 0203 	and.w	r2, r2, #3
 800300c:	6042      	str	r2, [r0, #4]
 800300e:	685a      	ldr	r2, [r3, #4]
 8003010:	f002 02f0 	and.w	r2, r2, #240	; 0xf0
 8003014:	6082      	str	r2, [r0, #8]
 8003016:	685a      	ldr	r2, [r3, #4]
 8003018:	f402 62e0 	and.w	r2, r2, #1792	; 0x700
 800301c:	60c2      	str	r2, [r0, #12]
 800301e:	685b      	ldr	r3, [r3, #4]
 8003020:	08db      	lsrs	r3, r3, #3
 8003022:	f403 63e0 	and.w	r3, r3, #1792	; 0x700
 8003026:	6103      	str	r3, [r0, #16]
 8003028:	4b03      	ldr	r3, [pc, #12]	; (8003038 <HAL_RCC_GetClockConfig+0x38>)
 800302a:	681b      	ldr	r3, [r3, #0]
 800302c:	f003 0307 	and.w	r3, r3, #7
 8003030:	600b      	str	r3, [r1, #0]
 8003032:	4770      	bx	lr
 8003034:	40021000 	.word	0x40021000
 8003038:	40022000 	.word	0x40022000

0800303c <HAL_TIM_Base_MspInit>:
 800303c:	4770      	bx	lr
	...

08003040 <HAL_TIM_Base_Start_IT>:
 8003040:	f890 303d 	ldrb.w	r3, [r0, #61]	; 0x3d
 8003044:	2b01      	cmp	r3, #1
 8003046:	d120      	bne.n	800308a <HAL_TIM_Base_Start_IT+0x4a>
 8003048:	2302      	movs	r3, #2
 800304a:	f880 303d 	strb.w	r3, [r0, #61]	; 0x3d
 800304e:	6803      	ldr	r3, [r0, #0]
 8003050:	68da      	ldr	r2, [r3, #12]
 8003052:	f042 0201 	orr.w	r2, r2, #1
 8003056:	60da      	str	r2, [r3, #12]
 8003058:	4a0d      	ldr	r2, [pc, #52]	; (8003090 <HAL_TIM_Base_Start_IT+0x50>)
 800305a:	4293      	cmp	r3, r2
 800305c:	d00a      	beq.n	8003074 <HAL_TIM_Base_Start_IT+0x34>
 800305e:	f1b3 4f80 	cmp.w	r3, #1073741824	; 0x40000000
 8003062:	d007      	beq.n	8003074 <HAL_TIM_Base_Start_IT+0x34>
 8003064:	f5a2 3294 	sub.w	r2, r2, #75776	; 0x12800
 8003068:	4293      	cmp	r3, r2
 800306a:	d003      	beq.n	8003074 <HAL_TIM_Base_Start_IT+0x34>
 800306c:	f502 6280 	add.w	r2, r2, #1024	; 0x400
 8003070:	4293      	cmp	r3, r2
 8003072:	d104      	bne.n	800307e <HAL_TIM_Base_Start_IT+0x3e>
 8003074:	689a      	ldr	r2, [r3, #8]
 8003076:	f002 0207 	and.w	r2, r2, #7
 800307a:	2a06      	cmp	r2, #6
 800307c:	d003      	beq.n	8003086 <HAL_TIM_Base_Start_IT+0x46>
 800307e:	681a      	ldr	r2, [r3, #0]
 8003080:	f042 0201 	orr.w	r2, r2, #1
 8003084:	601a      	str	r2, [r3, #0]
 8003086:	2000      	movs	r0, #0
 8003088:	4770      	bx	lr
 800308a:	2001      	movs	r0, #1
 800308c:	4770      	bx	lr
 800308e:	bf00      	nop
 8003090:	40012c00 	.word	0x40012c00

08003094 <HAL_TIM_OC_DelayElapsedCallback>:
 8003094:	4770      	bx	lr

08003096 <HAL_TIM_IC_CaptureCallback>:
 8003096:	4770      	bx	lr

08003098 <HAL_TIM_PWM_PulseFinishedCallback>:
 8003098:	4770      	bx	lr

0800309a <HAL_TIM_TriggerCallback>:
 800309a:	4770      	bx	lr

0800309c <HAL_TIM_IRQHandler>:
 800309c:	6803      	ldr	r3, [r0, #0]
 800309e:	b510      	push	{r4, lr}
 80030a0:	691a      	ldr	r2, [r3, #16]
 80030a2:	4604      	mov	r4, r0
 80030a4:	0791      	lsls	r1, r2, #30
 80030a6:	d50e      	bpl.n	80030c6 <HAL_TIM_IRQHandler+0x2a>
 80030a8:	68da      	ldr	r2, [r3, #12]
 80030aa:	0792      	lsls	r2, r2, #30
 80030ac:	d50b      	bpl.n	80030c6 <HAL_TIM_IRQHandler+0x2a>
 80030ae:	f06f 0202 	mvn.w	r2, #2
 80030b2:	611a      	str	r2, [r3, #16]
 80030b4:	2201      	movs	r2, #1
 80030b6:	7702      	strb	r2, [r0, #28]
 80030b8:	699b      	ldr	r3, [r3, #24]
 80030ba:	079b      	lsls	r3, r3, #30
 80030bc:	d077      	beq.n	80031ae <HAL_TIM_IRQHandler+0x112>
 80030be:	f7ff ffea 	bl	8003096 <HAL_TIM_IC_CaptureCallback>
 80030c2:	2300      	movs	r3, #0
 80030c4:	7723      	strb	r3, [r4, #28]
 80030c6:	6823      	ldr	r3, [r4, #0]
 80030c8:	691a      	ldr	r2, [r3, #16]
 80030ca:	0750      	lsls	r0, r2, #29
 80030cc:	d510      	bpl.n	80030f0 <HAL_TIM_IRQHandler+0x54>
 80030ce:	68da      	ldr	r2, [r3, #12]
 80030d0:	0751      	lsls	r1, r2, #29
 80030d2:	d50d      	bpl.n	80030f0 <HAL_TIM_IRQHandler+0x54>
 80030d4:	f06f 0204 	mvn.w	r2, #4
 80030d8:	611a      	str	r2, [r3, #16]
 80030da:	2202      	movs	r2, #2
 80030dc:	7722      	strb	r2, [r4, #28]
 80030de:	699b      	ldr	r3, [r3, #24]
 80030e0:	4620      	mov	r0, r4
 80030e2:	f413 7f40 	tst.w	r3, #768	; 0x300
 80030e6:	d068      	beq.n	80031ba <HAL_TIM_IRQHandler+0x11e>
 80030e8:	f7ff ffd5 	bl	8003096 <HAL_TIM_IC_CaptureCallback>
 80030ec:	2300      	movs	r3, #0
 80030ee:	7723      	strb	r3, [r4, #28]
 80030f0:	6823      	ldr	r3, [r4, #0]
 80030f2:	691a      	ldr	r2, [r3, #16]
 80030f4:	0712      	lsls	r2, r2, #28
 80030f6:	d50f      	bpl.n	8003118 <HAL_TIM_IRQHandler+0x7c>
 80030f8:	68da      	ldr	r2, [r3, #12]
 80030fa:	0710      	lsls	r0, r2, #28
 80030fc:	d50c      	bpl.n	8003118 <HAL_TIM_IRQHandler+0x7c>
 80030fe:	f06f 0208 	mvn.w	r2, #8
 8003102:	611a      	str	r2, [r3, #16]
 8003104:	2204      	movs	r2, #4
 8003106:	7722      	strb	r2, [r4, #28]
 8003108:	69db      	ldr	r3, [r3, #28]
 800310a:	4620      	mov	r0, r4
 800310c:	0799      	lsls	r1, r3, #30
 800310e:	d05a      	beq.n	80031c6 <HAL_TIM_IRQHandler+0x12a>
 8003110:	f7ff ffc1 	bl	8003096 <HAL_TIM_IC_CaptureCallback>
 8003114:	2300      	movs	r3, #0
 8003116:	7723      	strb	r3, [r4, #28]
 8003118:	6823      	ldr	r3, [r4, #0]
 800311a:	691a      	ldr	r2, [r3, #16]
 800311c:	06d2      	lsls	r2, r2, #27
 800311e:	d510      	bpl.n	8003142 <HAL_TIM_IRQHandler+0xa6>
 8003120:	68da      	ldr	r2, [r3, #12]
 8003122:	06d0      	lsls	r0, r2, #27
 8003124:	d50d      	bpl.n	8003142 <HAL_TIM_IRQHandler+0xa6>
 8003126:	f06f 0210 	mvn.w	r2, #16
 800312a:	611a      	str	r2, [r3, #16]
 800312c:	2208      	movs	r2, #8
 800312e:	7722      	strb	r2, [r4, #28]
 8003130:	69db      	ldr	r3, [r3, #28]
 8003132:	4620      	mov	r0, r4
 8003134:	f413 7f40 	tst.w	r3, #768	; 0x300
 8003138:	d04b      	beq.n	80031d2 <HAL_TIM_IRQHandler+0x136>
 800313a:	f7ff ffac 	bl	8003096 <HAL_TIM_IC_CaptureCallback>
 800313e:	2300      	movs	r3, #0
 8003140:	7723      	strb	r3, [r4, #28]
 8003142:	6823      	ldr	r3, [r4, #0]
 8003144:	691a      	ldr	r2, [r3, #16]
 8003146:	07d1      	lsls	r1, r2, #31
 8003148:	d508      	bpl.n	800315c <HAL_TIM_IRQHandler+0xc0>
 800314a:	68da      	ldr	r2, [r3, #12]
 800314c:	07d2      	lsls	r2, r2, #31
 800314e:	d505      	bpl.n	800315c <HAL_TIM_IRQHandler+0xc0>
 8003150:	f06f 0201 	mvn.w	r2, #1
 8003154:	4620      	mov	r0, r4
 8003156:	611a      	str	r2, [r3, #16]
 8003158:	f7fe fe2c 	bl	8001db4 <HAL_TIM_PeriodElapsedCallback>
 800315c:	6823      	ldr	r3, [r4, #0]
 800315e:	691a      	ldr	r2, [r3, #16]
 8003160:	0610      	lsls	r0, r2, #24
 8003162:	d508      	bpl.n	8003176 <HAL_TIM_IRQHandler+0xda>
 8003164:	68da      	ldr	r2, [r3, #12]
 8003166:	0611      	lsls	r1, r2, #24
 8003168:	d505      	bpl.n	8003176 <HAL_TIM_IRQHandler+0xda>
 800316a:	f06f 0280 	mvn.w	r2, #128	; 0x80
 800316e:	4620      	mov	r0, r4
 8003170:	611a      	str	r2, [r3, #16]
 8003172:	f000 f89a 	bl	80032aa <HAL_TIMEx_BreakCallback>
 8003176:	6823      	ldr	r3, [r4, #0]
 8003178:	691a      	ldr	r2, [r3, #16]
 800317a:	0652      	lsls	r2, r2, #25
 800317c:	d508      	bpl.n	8003190 <HAL_TIM_IRQHandler+0xf4>
 800317e:	68da      	ldr	r2, [r3, #12]
 8003180:	0650      	lsls	r0, r2, #25
 8003182:	d505      	bpl.n	8003190 <HAL_TIM_IRQHandler+0xf4>
 8003184:	f06f 0240 	mvn.w	r2, #64	; 0x40
 8003188:	4620      	mov	r0, r4
 800318a:	611a      	str	r2, [r3, #16]
 800318c:	f7ff ff85 	bl	800309a <HAL_TIM_TriggerCallback>
 8003190:	6823      	ldr	r3, [r4, #0]
 8003192:	691a      	ldr	r2, [r3, #16]
 8003194:	0691      	lsls	r1, r2, #26
 8003196:	d522      	bpl.n	80031de <HAL_TIM_IRQHandler+0x142>
 8003198:	68da      	ldr	r2, [r3, #12]
 800319a:	0692      	lsls	r2, r2, #26
 800319c:	d51f      	bpl.n	80031de <HAL_TIM_IRQHandler+0x142>
 800319e:	f06f 0220 	mvn.w	r2, #32
 80031a2:	4620      	mov	r0, r4
 80031a4:	e8bd 4010 	ldmia.w	sp!, {r4, lr}
 80031a8:	611a      	str	r2, [r3, #16]
 80031aa:	f000 b87d 	b.w	80032a8 <HAL_TIMEx_CommutCallback>
 80031ae:	f7ff ff71 	bl	8003094 <HAL_TIM_OC_DelayElapsedCallback>
 80031b2:	4620      	mov	r0, r4
 80031b4:	f7ff ff70 	bl	8003098 <HAL_TIM_PWM_PulseFinishedCallback>
 80031b8:	e783      	b.n	80030c2 <HAL_TIM_IRQHandler+0x26>
 80031ba:	f7ff ff6b 	bl	8003094 <HAL_TIM_OC_DelayElapsedCallback>
 80031be:	4620      	mov	r0, r4
 80031c0:	f7ff ff6a 	bl	8003098 <HAL_TIM_PWM_PulseFinishedCallback>
 80031c4:	e792      	b.n	80030ec <HAL_TIM_IRQHandler+0x50>
 80031c6:	f7ff ff65 	bl	8003094 <HAL_TIM_OC_DelayElapsedCallback>
 80031ca:	4620      	mov	r0, r4
 80031cc:	f7ff ff64 	bl	8003098 <HAL_TIM_PWM_PulseFinishedCallback>
 80031d0:	e7a0      	b.n	8003114 <HAL_TIM_IRQHandler+0x78>
 80031d2:	f7ff ff5f 	bl	8003094 <HAL_TIM_OC_DelayElapsedCallback>
 80031d6:	4620      	mov	r0, r4
 80031d8:	f7ff ff5e 	bl	8003098 <HAL_TIM_PWM_PulseFinishedCallback>
 80031dc:	e7af      	b.n	800313e <HAL_TIM_IRQHandler+0xa2>
 80031de:	bd10      	pop	{r4, pc}

080031e0 <TIM_Base_SetConfig>:
 80031e0:	4a1a      	ldr	r2, [pc, #104]	; (800324c <TIM_Base_SetConfig+0x6c>)
 80031e2:	6803      	ldr	r3, [r0, #0]
 80031e4:	4290      	cmp	r0, r2
 80031e6:	d00a      	beq.n	80031fe <TIM_Base_SetConfig+0x1e>
 80031e8:	f1b0 4f80 	cmp.w	r0, #1073741824	; 0x40000000
 80031ec:	d007      	beq.n	80031fe <TIM_Base_SetConfig+0x1e>
 80031ee:	f5a2 3294 	sub.w	r2, r2, #75776	; 0x12800
 80031f2:	4290      	cmp	r0, r2
 80031f4:	d003      	beq.n	80031fe <TIM_Base_SetConfig+0x1e>
 80031f6:	f502 6280 	add.w	r2, r2, #1024	; 0x400
 80031fa:	4290      	cmp	r0, r2
 80031fc:	d115      	bne.n	800322a <TIM_Base_SetConfig+0x4a>
 80031fe:	684a      	ldr	r2, [r1, #4]
 8003200:	f023 0370 	bic.w	r3, r3, #112	; 0x70
 8003204:	4313      	orrs	r3, r2
 8003206:	4a11      	ldr	r2, [pc, #68]	; (800324c <TIM_Base_SetConfig+0x6c>)
 8003208:	4290      	cmp	r0, r2
 800320a:	d00a      	beq.n	8003222 <TIM_Base_SetConfig+0x42>
 800320c:	f1b0 4f80 	cmp.w	r0, #1073741824	; 0x40000000
 8003210:	d007      	beq.n	8003222 <TIM_Base_SetConfig+0x42>
 8003212:	f5a2 3294 	sub.w	r2, r2, #75776	; 0x12800
 8003216:	4290      	cmp	r0, r2
 8003218:	d003      	beq.n	8003222 <TIM_Base_SetConfig+0x42>
 800321a:	f502 6280 	add.w	r2, r2, #1024	; 0x400
 800321e:	4290      	cmp	r0, r2
 8003220:	d103      	bne.n	800322a <TIM_Base_SetConfig+0x4a>
 8003222:	68ca      	ldr	r2, [r1, #12]
 8003224:	f423 7340 	bic.w	r3, r3, #768	; 0x300
 8003228:	4313      	orrs	r3, r2
 800322a:	694a      	ldr	r2, [r1, #20]
 800322c:	f023 0380 	bic.w	r3, r3, #128	; 0x80
 8003230:	4313      	orrs	r3, r2
 8003232:	6003      	str	r3, [r0, #0]
 8003234:	688b      	ldr	r3, [r1, #8]
 8003236:	62c3      	str	r3, [r0, #44]	; 0x2c
 8003238:	680b      	ldr	r3, [r1, #0]
 800323a:	6283      	str	r3, [r0, #40]	; 0x28
 800323c:	4b03      	ldr	r3, [pc, #12]	; (800324c <TIM_Base_SetConfig+0x6c>)
 800323e:	4298      	cmp	r0, r3
 8003240:	bf04      	itt	eq
 8003242:	690b      	ldreq	r3, [r1, #16]
 8003244:	6303      	streq	r3, [r0, #48]	; 0x30
 8003246:	2301      	movs	r3, #1
 8003248:	6143      	str	r3, [r0, #20]
 800324a:	4770      	bx	lr
 800324c:	40012c00 	.word	0x40012c00

08003250 <HAL_TIM_Base_Init>:
 8003250:	b510      	push	{r4, lr}
 8003252:	4604      	mov	r4, r0
 8003254:	b330      	cbz	r0, 80032a4 <HAL_TIM_Base_Init+0x54>
 8003256:	f890 303d 	ldrb.w	r3, [r0, #61]	; 0x3d
 800325a:	f003 02ff 	and.w	r2, r3, #255	; 0xff
 800325e:	b91b      	cbnz	r3, 8003268 <HAL_TIM_Base_Init+0x18>
 8003260:	f880 203c 	strb.w	r2, [r0, #60]	; 0x3c
 8003264:	f7ff feea 	bl	800303c <HAL_TIM_Base_MspInit>
 8003268:	2302      	movs	r3, #2
 800326a:	6820      	ldr	r0, [r4, #0]
 800326c:	f884 303d 	strb.w	r3, [r4, #61]	; 0x3d
 8003270:	1d21      	adds	r1, r4, #4
 8003272:	f7ff ffb5 	bl	80031e0 <TIM_Base_SetConfig>
 8003276:	2301      	movs	r3, #1
 8003278:	2000      	movs	r0, #0
 800327a:	f884 3046 	strb.w	r3, [r4, #70]	; 0x46
 800327e:	f884 303e 	strb.w	r3, [r4, #62]	; 0x3e
 8003282:	f884 303f 	strb.w	r3, [r4, #63]	; 0x3f
 8003286:	f884 3040 	strb.w	r3, [r4, #64]	; 0x40
 800328a:	f884 3041 	strb.w	r3, [r4, #65]	; 0x41
 800328e:	f884 3042 	strb.w	r3, [r4, #66]	; 0x42
 8003292:	f884 3043 	strb.w	r3, [r4, #67]	; 0x43
 8003296:	f884 3044 	strb.w	r3, [r4, #68]	; 0x44
 800329a:	f884 3045 	strb.w	r3, [r4, #69]	; 0x45
 800329e:	f884 303d 	strb.w	r3, [r4, #61]	; 0x3d
 80032a2:	bd10      	pop	{r4, pc}
 80032a4:	2001      	movs	r0, #1
 80032a6:	e7fc      	b.n	80032a2 <HAL_TIM_Base_Init+0x52>

080032a8 <HAL_TIMEx_CommutCallback>:
 80032a8:	4770      	bx	lr

080032aa <HAL_TIMEx_BreakCallback>:
 80032aa:	4770      	bx	lr

080032ac <osKernelInitialize>:
 80032ac:	f3ef 8305 	mrs	r3, IPSR
 80032b0:	b113      	cbz	r3, 80032b8 <osKernelInitialize+0xc>
 80032b2:	f06f 0005 	mvn.w	r0, #5
 80032b6:	4770      	bx	lr
 80032b8:	f3ef 8310 	mrs	r3, PRIMASK
 80032bc:	2b00      	cmp	r3, #0
 80032be:	d1f8      	bne.n	80032b2 <osKernelInitialize+0x6>
 80032c0:	4b07      	ldr	r3, [pc, #28]	; (80032e0 <osKernelInitialize+0x34>)
 80032c2:	6818      	ldr	r0, [r3, #0]
 80032c4:	2802      	cmp	r0, #2
 80032c6:	d106      	bne.n	80032d6 <osKernelInitialize+0x2a>
 80032c8:	f3ef 8311 	mrs	r3, BASEPRI
 80032cc:	2b00      	cmp	r3, #0
 80032ce:	d1f0      	bne.n	80032b2 <osKernelInitialize+0x6>
 80032d0:	f04f 30ff 	mov.w	r0, #4294967295
 80032d4:	4770      	bx	lr
 80032d6:	2800      	cmp	r0, #0
 80032d8:	d1fa      	bne.n	80032d0 <osKernelInitialize+0x24>
 80032da:	2201      	movs	r2, #1
 80032dc:	601a      	str	r2, [r3, #0]
 80032de:	4770      	bx	lr
 80032e0:	20001208 	.word	0x20001208

080032e4 <osKernelStart>:
 80032e4:	b510      	push	{r4, lr}
 80032e6:	f3ef 8305 	mrs	r3, IPSR
 80032ea:	b113      	cbz	r3, 80032f2 <osKernelStart+0xe>
 80032ec:	f06f 0005 	mvn.w	r0, #5
 80032f0:	bd10      	pop	{r4, pc}
 80032f2:	f3ef 8410 	mrs	r4, PRIMASK
 80032f6:	2c00      	cmp	r4, #0
 80032f8:	d1f8      	bne.n	80032ec <osKernelStart+0x8>
 80032fa:	4b09      	ldr	r3, [pc, #36]	; (8003320 <osKernelStart+0x3c>)
 80032fc:	681a      	ldr	r2, [r3, #0]
 80032fe:	2a02      	cmp	r2, #2
 8003300:	d106      	bne.n	8003310 <osKernelStart+0x2c>
 8003302:	f3ef 8311 	mrs	r3, BASEPRI
 8003306:	2b00      	cmp	r3, #0
 8003308:	d1f0      	bne.n	80032ec <osKernelStart+0x8>
 800330a:	f04f 30ff 	mov.w	r0, #4294967295
 800330e:	e7ef      	b.n	80032f0 <osKernelStart+0xc>
 8003310:	2a01      	cmp	r2, #1
 8003312:	d1fa      	bne.n	800330a <osKernelStart+0x26>
 8003314:	2202      	movs	r2, #2
 8003316:	601a      	str	r2, [r3, #0]
 8003318:	f001 fc34 	bl	8004b84 <vTaskStartScheduler>
 800331c:	4620      	mov	r0, r4
 800331e:	e7e7      	b.n	80032f0 <osKernelStart+0xc>
 8003320:	20001208 	.word	0x20001208

08003324 <osKernelLock>:
 8003324:	b508      	push	{r3, lr}
 8003326:	f3ef 8305 	mrs	r3, IPSR
 800332a:	b113      	cbz	r3, 8003332 <osKernelLock+0xe>
 800332c:	f06f 0005 	mvn.w	r0, #5
 8003330:	bd08      	pop	{r3, pc}
 8003332:	f3ef 8310 	mrs	r3, PRIMASK
 8003336:	2b00      	cmp	r3, #0
 8003338:	d1f8      	bne.n	800332c <osKernelLock+0x8>
 800333a:	4b0b      	ldr	r3, [pc, #44]	; (8003368 <osKernelLock+0x44>)
 800333c:	681b      	ldr	r3, [r3, #0]
 800333e:	2b02      	cmp	r3, #2
 8003340:	d103      	bne.n	800334a <osKernelLock+0x26>
 8003342:	f3ef 8311 	mrs	r3, BASEPRI
 8003346:	2b00      	cmp	r3, #0
 8003348:	d1f0      	bne.n	800332c <osKernelLock+0x8>
 800334a:	f001 ff43 	bl	80051d4 <xTaskGetSchedulerState>
 800334e:	b128      	cbz	r0, 800335c <osKernelLock+0x38>
 8003350:	2802      	cmp	r0, #2
 8003352:	d105      	bne.n	8003360 <osKernelLock+0x3c>
 8003354:	f001 fc66 	bl	8004c24 <vTaskSuspendAll>
 8003358:	2000      	movs	r0, #0
 800335a:	e7e9      	b.n	8003330 <osKernelLock+0xc>
 800335c:	2001      	movs	r0, #1
 800335e:	e7e7      	b.n	8003330 <osKernelLock+0xc>
 8003360:	f04f 30ff 	mov.w	r0, #4294967295
 8003364:	e7e4      	b.n	8003330 <osKernelLock+0xc>
 8003366:	bf00      	nop
 8003368:	20001208 	.word	0x20001208

0800336c <osKernelUnlock>:
 800336c:	b508      	push	{r3, lr}
 800336e:	f3ef 8305 	mrs	r3, IPSR
 8003372:	b113      	cbz	r3, 800337a <osKernelUnlock+0xe>
 8003374:	f06f 0005 	mvn.w	r0, #5
 8003378:	bd08      	pop	{r3, pc}
 800337a:	f3ef 8310 	mrs	r3, PRIMASK
 800337e:	2b00      	cmp	r3, #0
 8003380:	d1f8      	bne.n	8003374 <osKernelUnlock+0x8>
 8003382:	4b0e      	ldr	r3, [pc, #56]	; (80033bc <osKernelUnlock+0x50>)
 8003384:	681b      	ldr	r3, [r3, #0]
 8003386:	2b02      	cmp	r3, #2
 8003388:	d103      	bne.n	8003392 <osKernelUnlock+0x26>
 800338a:	f3ef 8311 	mrs	r3, BASEPRI
 800338e:	2b00      	cmp	r3, #0
 8003390:	d1f0      	bne.n	8003374 <osKernelUnlock+0x8>
 8003392:	f001 ff1f 	bl	80051d4 <xTaskGetSchedulerState>
 8003396:	b120      	cbz	r0, 80033a2 <osKernelUnlock+0x36>
 8003398:	3802      	subs	r0, #2
 800339a:	bf18      	it	ne
 800339c:	f04f 30ff 	movne.w	r0, #4294967295
 80033a0:	e7ea      	b.n	8003378 <osKernelUnlock+0xc>
 80033a2:	f001 fce5 	bl	8004d70 <xTaskResumeAll>
 80033a6:	2801      	cmp	r0, #1
 80033a8:	d101      	bne.n	80033ae <osKernelUnlock+0x42>
 80033aa:	2001      	movs	r0, #1
 80033ac:	e7e4      	b.n	8003378 <osKernelUnlock+0xc>
 80033ae:	f001 ff11 	bl	80051d4 <xTaskGetSchedulerState>
 80033b2:	2800      	cmp	r0, #0
 80033b4:	d1f9      	bne.n	80033aa <osKernelUnlock+0x3e>
 80033b6:	f04f 30ff 	mov.w	r0, #4294967295
 80033ba:	e7dd      	b.n	8003378 <osKernelUnlock+0xc>
 80033bc:	20001208 	.word	0x20001208

080033c0 <osKernelGetTickCount>:
 80033c0:	f3ef 8305 	mrs	r3, IPSR
 80033c4:	b10b      	cbz	r3, 80033ca <osKernelGetTickCount+0xa>
 80033c6:	f001 bc3b 	b.w	8004c40 <xTaskGetTickCountFromISR>
 80033ca:	f3ef 8310 	mrs	r3, PRIMASK
 80033ce:	2b00      	cmp	r3, #0
 80033d0:	d1f9      	bne.n	80033c6 <osKernelGetTickCount+0x6>
 80033d2:	4b05      	ldr	r3, [pc, #20]	; (80033e8 <osKernelGetTickCount+0x28>)
 80033d4:	681b      	ldr	r3, [r3, #0]
 80033d6:	2b02      	cmp	r3, #2
 80033d8:	d103      	bne.n	80033e2 <osKernelGetTickCount+0x22>
 80033da:	f3ef 8311 	mrs	r3, BASEPRI
 80033de:	2b00      	cmp	r3, #0
 80033e0:	d1f1      	bne.n	80033c6 <osKernelGetTickCount+0x6>
 80033e2:	f001 bc27 	b.w	8004c34 <xTaskGetTickCount>
 80033e6:	bf00      	nop
 80033e8:	20001208 	.word	0x20001208

080033ec <osThreadNew>:
 80033ec:	b5f0      	push	{r4, r5, r6, r7, lr}
 80033ee:	4614      	mov	r4, r2
 80033f0:	2200      	movs	r2, #0
 80033f2:	b087      	sub	sp, #28
 80033f4:	460b      	mov	r3, r1
 80033f6:	9205      	str	r2, [sp, #20]
 80033f8:	f3ef 8205 	mrs	r2, IPSR
 80033fc:	bb52      	cbnz	r2, 8003454 <osThreadNew+0x68>
 80033fe:	f3ef 8210 	mrs	r2, PRIMASK
 8003402:	bb3a      	cbnz	r2, 8003454 <osThreadNew+0x68>
 8003404:	4a26      	ldr	r2, [pc, #152]	; (80034a0 <osThreadNew+0xb4>)
 8003406:	6812      	ldr	r2, [r2, #0]
 8003408:	2a02      	cmp	r2, #2
 800340a:	d102      	bne.n	8003412 <osThreadNew+0x26>
 800340c:	f3ef 8211 	mrs	r2, BASEPRI
 8003410:	bb02      	cbnz	r2, 8003454 <osThreadNew+0x68>
 8003412:	b1f8      	cbz	r0, 8003454 <osThreadNew+0x68>
 8003414:	2200      	movs	r2, #0
 8003416:	f88d 2013 	strb.w	r2, [sp, #19]
 800341a:	2c00      	cmp	r4, #0
 800341c:	d030      	beq.n	8003480 <osThreadNew+0x94>
 800341e:	6821      	ldr	r1, [r4, #0]
 8003420:	b909      	cbnz	r1, 8003426 <osThreadNew+0x3a>
 8003422:	f10d 0113 	add.w	r1, sp, #19
 8003426:	69a5      	ldr	r5, [r4, #24]
 8003428:	2d00      	cmp	r5, #0
 800342a:	bf08      	it	eq
 800342c:	2518      	moveq	r5, #24
 800342e:	1e6a      	subs	r2, r5, #1
 8003430:	2a37      	cmp	r2, #55	; 0x37
 8003432:	46ac      	mov	ip, r5
 8003434:	d82a      	bhi.n	800348c <osThreadNew+0xa0>
 8003436:	6862      	ldr	r2, [r4, #4]
 8003438:	07d2      	lsls	r2, r2, #31
 800343a:	d427      	bmi.n	800348c <osThreadNew+0xa0>
 800343c:	6966      	ldr	r6, [r4, #20]
 800343e:	b166      	cbz	r6, 800345a <osThreadNew+0x6e>
 8003440:	08b2      	lsrs	r2, r6, #2
 8003442:	e9d4 7e02 	ldrd	r7, lr, [r4, #8]
 8003446:	b157      	cbz	r7, 800345e <osThreadNew+0x72>
 8003448:	f1be 0fbf 	cmp.w	lr, #191	; 0xbf
 800344c:	d902      	bls.n	8003454 <osThreadNew+0x68>
 800344e:	6924      	ldr	r4, [r4, #16]
 8003450:	b104      	cbz	r4, 8003454 <osThreadNew+0x68>
 8003452:	b9ee      	cbnz	r6, 8003490 <osThreadNew+0xa4>
 8003454:	9805      	ldr	r0, [sp, #20]
 8003456:	b007      	add	sp, #28
 8003458:	bdf0      	pop	{r4, r5, r6, r7, pc}
 800345a:	2280      	movs	r2, #128	; 0x80
 800345c:	e7f1      	b.n	8003442 <osThreadNew+0x56>
 800345e:	f1be 0f00 	cmp.w	lr, #0
 8003462:	d1f7      	bne.n	8003454 <osThreadNew+0x68>
 8003464:	6924      	ldr	r4, [r4, #16]
 8003466:	2c00      	cmp	r4, #0
 8003468:	d1f4      	bne.n	8003454 <osThreadNew+0x68>
 800346a:	ac05      	add	r4, sp, #20
 800346c:	e9cd c400 	strd	ip, r4, [sp]
 8003470:	b292      	uxth	r2, r2
 8003472:	f001 fb5a 	bl	8004b2a <xTaskCreate>
 8003476:	2801      	cmp	r0, #1
 8003478:	bf1c      	itt	ne
 800347a:	2300      	movne	r3, #0
 800347c:	9305      	strne	r3, [sp, #20]
 800347e:	e7e9      	b.n	8003454 <osThreadNew+0x68>
 8003480:	f04f 0c18 	mov.w	ip, #24
 8003484:	2280      	movs	r2, #128	; 0x80
 8003486:	f10d 0113 	add.w	r1, sp, #19
 800348a:	e7ee      	b.n	800346a <osThreadNew+0x7e>
 800348c:	2000      	movs	r0, #0
 800348e:	e7e2      	b.n	8003456 <osThreadNew+0x6a>
 8003490:	e9cd 4701 	strd	r4, r7, [sp, #4]
 8003494:	9500      	str	r5, [sp, #0]
 8003496:	f001 fb11 	bl	8004abc <xTaskCreateStatic>
 800349a:	9005      	str	r0, [sp, #20]
 800349c:	e7da      	b.n	8003454 <osThreadNew+0x68>
 800349e:	bf00      	nop
 80034a0:	20001208 	.word	0x20001208

080034a4 <osDelay>:
 80034a4:	b508      	push	{r3, lr}
 80034a6:	f3ef 8305 	mrs	r3, IPSR
 80034aa:	b113      	cbz	r3, 80034b2 <osDelay+0xe>
 80034ac:	f06f 0005 	mvn.w	r0, #5
 80034b0:	bd08      	pop	{r3, pc}
 80034b2:	f3ef 8310 	mrs	r3, PRIMASK
 80034b6:	2b00      	cmp	r3, #0
 80034b8:	d1f8      	bne.n	80034ac <osDelay+0x8>
 80034ba:	4b07      	ldr	r3, [pc, #28]	; (80034d8 <osDelay+0x34>)
 80034bc:	681b      	ldr	r3, [r3, #0]
 80034be:	2b02      	cmp	r3, #2
 80034c0:	d103      	bne.n	80034ca <osDelay+0x26>
 80034c2:	f3ef 8311 	mrs	r3, BASEPRI
 80034c6:	2b00      	cmp	r3, #0
 80034c8:	d1f0      	bne.n	80034ac <osDelay+0x8>
 80034ca:	2800      	cmp	r0, #0
 80034cc:	d0f0      	beq.n	80034b0 <osDelay+0xc>
 80034ce:	f001 fd0b 	bl	8004ee8 <vTaskDelay>
 80034d2:	2000      	movs	r0, #0
 80034d4:	e7ec      	b.n	80034b0 <osDelay+0xc>
 80034d6:	bf00      	nop
 80034d8:	20001208 	.word	0x20001208

080034dc <osDelayUntil>:
 80034dc:	b513      	push	{r0, r1, r4, lr}
 80034de:	4604      	mov	r4, r0
 80034e0:	f3ef 8305 	mrs	r3, IPSR
 80034e4:	b11b      	cbz	r3, 80034ee <osDelayUntil+0x12>
 80034e6:	f06f 0005 	mvn.w	r0, #5
 80034ea:	b002      	add	sp, #8
 80034ec:	bd10      	pop	{r4, pc}
 80034ee:	f3ef 8310 	mrs	r3, PRIMASK
 80034f2:	2b00      	cmp	r3, #0
 80034f4:	d1f7      	bne.n	80034e6 <osDelayUntil+0xa>
 80034f6:	4b08      	ldr	r3, [pc, #32]	; (8003518 <osDelayUntil+0x3c>)
 80034f8:	681b      	ldr	r3, [r3, #0]
 80034fa:	2b02      	cmp	r3, #2
 80034fc:	d103      	bne.n	8003506 <osDelayUntil+0x2a>
 80034fe:	f3ef 8311 	mrs	r3, BASEPRI
 8003502:	2b00      	cmp	r3, #0
 8003504:	d1ef      	bne.n	80034e6 <osDelayUntil+0xa>
 8003506:	f001 fb95 	bl	8004c34 <xTaskGetTickCount>
 800350a:	9001      	str	r0, [sp, #4]
 800350c:	1a21      	subs	r1, r4, r0
 800350e:	a801      	add	r0, sp, #4
 8003510:	f001 fca2 	bl	8004e58 <vTaskDelayUntil>
 8003514:	2000      	movs	r0, #0
 8003516:	e7e8      	b.n	80034ea <osDelayUntil+0xe>
 8003518:	20001208 	.word	0x20001208

0800351c <osEventFlagsNew>:
 800351c:	4603      	mov	r3, r0
 800351e:	f3ef 8205 	mrs	r2, IPSR
 8003522:	b992      	cbnz	r2, 800354a <osEventFlagsNew+0x2e>
 8003524:	f3ef 8210 	mrs	r2, PRIMASK
 8003528:	b97a      	cbnz	r2, 800354a <osEventFlagsNew+0x2e>
 800352a:	4a0a      	ldr	r2, [pc, #40]	; (8003554 <osEventFlagsNew+0x38>)
 800352c:	6812      	ldr	r2, [r2, #0]
 800352e:	2a02      	cmp	r2, #2
 8003530:	d102      	bne.n	8003538 <osEventFlagsNew+0x1c>
 8003532:	f3ef 8211 	mrs	r2, BASEPRI
 8003536:	b942      	cbnz	r2, 800354a <osEventFlagsNew+0x2e>
 8003538:	b14b      	cbz	r3, 800354e <osEventFlagsNew+0x32>
 800353a:	e9d3 0302 	ldrd	r0, r3, [r3, #8]
 800353e:	b118      	cbz	r0, 8003548 <osEventFlagsNew+0x2c>
 8003540:	2b1f      	cmp	r3, #31
 8003542:	d902      	bls.n	800354a <osEventFlagsNew+0x2e>
 8003544:	f000 bae2 	b.w	8003b0c <xEventGroupCreateStatic>
 8003548:	b10b      	cbz	r3, 800354e <osEventFlagsNew+0x32>
 800354a:	2000      	movs	r0, #0
 800354c:	4770      	bx	lr
 800354e:	f000 bb01 	b.w	8003b54 <xEventGroupCreate>
 8003552:	bf00      	nop
 8003554:	20001208 	.word	0x20001208

08003558 <osEventFlagsSet>:
 8003558:	b513      	push	{r0, r1, r4, lr}
 800355a:	460c      	mov	r4, r1
 800355c:	b380      	cbz	r0, 80035c0 <osEventFlagsSet+0x68>
 800355e:	f011 4f7f 	tst.w	r1, #4278190080	; 0xff000000
 8003562:	d12d      	bne.n	80035c0 <osEventFlagsSet+0x68>
 8003564:	f3ef 8305 	mrs	r3, IPSR
 8003568:	b14b      	cbz	r3, 800357e <osEventFlagsSet+0x26>
 800356a:	2300      	movs	r3, #0
 800356c:	4621      	mov	r1, r4
 800356e:	aa01      	add	r2, sp, #4
 8003570:	9301      	str	r3, [sp, #4]
 8003572:	f000 fb7f 	bl	8003c74 <xEventGroupSetBitsFromISR>
 8003576:	b1a0      	cbz	r0, 80035a2 <osEventFlagsSet+0x4a>
 8003578:	f06f 0402 	mvn.w	r4, #2
 800357c:	e01d      	b.n	80035ba <osEventFlagsSet+0x62>
 800357e:	f3ef 8310 	mrs	r3, PRIMASK
 8003582:	2b00      	cmp	r3, #0
 8003584:	d1f1      	bne.n	800356a <osEventFlagsSet+0x12>
 8003586:	4b10      	ldr	r3, [pc, #64]	; (80035c8 <osEventFlagsSet+0x70>)
 8003588:	681b      	ldr	r3, [r3, #0]
 800358a:	2b02      	cmp	r3, #2
 800358c:	d103      	bne.n	8003596 <osEventFlagsSet+0x3e>
 800358e:	f3ef 8311 	mrs	r3, BASEPRI
 8003592:	2b00      	cmp	r3, #0
 8003594:	d1e9      	bne.n	800356a <osEventFlagsSet+0x12>
 8003596:	4621      	mov	r1, r4
 8003598:	b002      	add	sp, #8
 800359a:	e8bd 4010 	ldmia.w	sp!, {r4, lr}
 800359e:	f000 bb23 	b.w	8003be8 <xEventGroupSetBits>
 80035a2:	9b01      	ldr	r3, [sp, #4]
 80035a4:	b14b      	cbz	r3, 80035ba <osEventFlagsSet+0x62>
 80035a6:	f04f 23e0 	mov.w	r3, #3758153728	; 0xe000e000
 80035aa:	f04f 5280 	mov.w	r2, #268435456	; 0x10000000
 80035ae:	f8c3 2d04 	str.w	r2, [r3, #3332]	; 0xd04
 80035b2:	f3bf 8f4f 	dsb	sy
 80035b6:	f3bf 8f6f 	isb	sy
 80035ba:	4620      	mov	r0, r4
 80035bc:	b002      	add	sp, #8
 80035be:	bd10      	pop	{r4, pc}
 80035c0:	f06f 0403 	mvn.w	r4, #3
 80035c4:	e7f9      	b.n	80035ba <osEventFlagsSet+0x62>
 80035c6:	bf00      	nop
 80035c8:	20001208 	.word	0x20001208

080035cc <osEventFlagsClear>:
 80035cc:	b570      	push	{r4, r5, r6, lr}
 80035ce:	460e      	mov	r6, r1
 80035d0:	4605      	mov	r5, r0
 80035d2:	b328      	cbz	r0, 8003620 <osEventFlagsClear+0x54>
 80035d4:	f011 4f7f 	tst.w	r1, #4278190080	; 0xff000000
 80035d8:	d122      	bne.n	8003620 <osEventFlagsClear+0x54>
 80035da:	f3ef 8305 	mrs	r3, IPSR
 80035de:	b16b      	cbz	r3, 80035fc <osEventFlagsClear+0x30>
 80035e0:	4628      	mov	r0, r5
 80035e2:	f000 faf3 	bl	8003bcc <xEventGroupGetBitsFromISR>
 80035e6:	4631      	mov	r1, r6
 80035e8:	4604      	mov	r4, r0
 80035ea:	4628      	mov	r0, r5
 80035ec:	f000 fae6 	bl	8003bbc <xEventGroupClearBitsFromISR>
 80035f0:	2800      	cmp	r0, #0
 80035f2:	bf08      	it	eq
 80035f4:	f06f 0402 	mvneq.w	r4, #2
 80035f8:	4620      	mov	r0, r4
 80035fa:	bd70      	pop	{r4, r5, r6, pc}
 80035fc:	f3ef 8310 	mrs	r3, PRIMASK
 8003600:	2b00      	cmp	r3, #0
 8003602:	d1ed      	bne.n	80035e0 <osEventFlagsClear+0x14>
 8003604:	4b08      	ldr	r3, [pc, #32]	; (8003628 <osEventFlagsClear+0x5c>)
 8003606:	681b      	ldr	r3, [r3, #0]
 8003608:	2b02      	cmp	r3, #2
 800360a:	d103      	bne.n	8003614 <osEventFlagsClear+0x48>
 800360c:	f3ef 8311 	mrs	r3, BASEPRI
 8003610:	2b00      	cmp	r3, #0
 8003612:	d1e5      	bne.n	80035e0 <osEventFlagsClear+0x14>
 8003614:	4631      	mov	r1, r6
 8003616:	4628      	mov	r0, r5
 8003618:	e8bd 4070 	ldmia.w	sp!, {r4, r5, r6, lr}
 800361c:	f000 baa8 	b.w	8003b70 <xEventGroupClearBits>
 8003620:	f06f 0403 	mvn.w	r4, #3
 8003624:	e7e8      	b.n	80035f8 <osEventFlagsClear+0x2c>
 8003626:	bf00      	nop
 8003628:	20001208 	.word	0x20001208

0800362c <osEventFlagsGet>:
 800362c:	4603      	mov	r3, r0
 800362e:	b1a8      	cbz	r0, 800365c <osEventFlagsGet+0x30>
 8003630:	f3ef 8205 	mrs	r2, IPSR
 8003634:	b112      	cbz	r2, 800363c <osEventFlagsGet+0x10>
 8003636:	4618      	mov	r0, r3
 8003638:	f000 bac8 	b.w	8003bcc <xEventGroupGetBitsFromISR>
 800363c:	f3ef 8210 	mrs	r2, PRIMASK
 8003640:	2a00      	cmp	r2, #0
 8003642:	d1f8      	bne.n	8003636 <osEventFlagsGet+0xa>
 8003644:	4a06      	ldr	r2, [pc, #24]	; (8003660 <osEventFlagsGet+0x34>)
 8003646:	6812      	ldr	r2, [r2, #0]
 8003648:	2a02      	cmp	r2, #2
 800364a:	d103      	bne.n	8003654 <osEventFlagsGet+0x28>
 800364c:	f3ef 8211 	mrs	r2, BASEPRI
 8003650:	2a00      	cmp	r2, #0
 8003652:	d1f0      	bne.n	8003636 <osEventFlagsGet+0xa>
 8003654:	2100      	movs	r1, #0
 8003656:	4618      	mov	r0, r3
 8003658:	f000 ba8a 	b.w	8003b70 <xEventGroupClearBits>
 800365c:	4770      	bx	lr
 800365e:	bf00      	nop
 8003660:	20001208 	.word	0x20001208

08003664 <osMutexNew>:
 8003664:	b570      	push	{r4, r5, r6, lr}
 8003666:	4605      	mov	r5, r0
 8003668:	f3ef 8305 	mrs	r3, IPSR
 800366c:	b113      	cbz	r3, 8003674 <osMutexNew+0x10>
 800366e:	2400      	movs	r4, #0
 8003670:	4620      	mov	r0, r4
 8003672:	bd70      	pop	{r4, r5, r6, pc}
 8003674:	f3ef 8310 	mrs	r3, PRIMASK
 8003678:	2b00      	cmp	r3, #0
 800367a:	d1f8      	bne.n	800366e <osMutexNew+0xa>
 800367c:	4a1a      	ldr	r2, [pc, #104]	; (80036e8 <osMutexNew+0x84>)
 800367e:	6812      	ldr	r2, [r2, #0]
 8003680:	2a02      	cmp	r2, #2
 8003682:	d103      	bne.n	800368c <osMutexNew+0x28>
 8003684:	f3ef 8211 	mrs	r2, BASEPRI
 8003688:	2a00      	cmp	r2, #0
 800368a:	d1f0      	bne.n	800366e <osMutexNew+0xa>
 800368c:	b115      	cbz	r5, 8003694 <osMutexNew+0x30>
 800368e:	686b      	ldr	r3, [r5, #4]
 8003690:	071a      	lsls	r2, r3, #28
 8003692:	d4ec      	bmi.n	800366e <osMutexNew+0xa>
 8003694:	f003 0601 	and.w	r6, r3, #1
 8003698:	b17d      	cbz	r5, 80036ba <osMutexNew+0x56>
 800369a:	e9d5 1302 	ldrd	r1, r3, [r5, #8]
 800369e:	b151      	cbz	r1, 80036b6 <osMutexNew+0x52>
 80036a0:	2b4f      	cmp	r3, #79	; 0x4f
 80036a2:	d9e4      	bls.n	800366e <osMutexNew+0xa>
 80036a4:	b1de      	cbz	r6, 80036de <osMutexNew+0x7a>
 80036a6:	2004      	movs	r0, #4
 80036a8:	f000 fd5f 	bl	800416a <xQueueCreateMutexStatic>
 80036ac:	4604      	mov	r4, r0
 80036ae:	2800      	cmp	r0, #0
 80036b0:	d0dd      	beq.n	800366e <osMutexNew+0xa>
 80036b2:	682d      	ldr	r5, [r5, #0]
 80036b4:	e00a      	b.n	80036cc <osMutexNew+0x68>
 80036b6:	2b00      	cmp	r3, #0
 80036b8:	d1d9      	bne.n	800366e <osMutexNew+0xa>
 80036ba:	b196      	cbz	r6, 80036e2 <osMutexNew+0x7e>
 80036bc:	2004      	movs	r0, #4
 80036be:	f000 fd87 	bl	80041d0 <xQueueCreateMutex>
 80036c2:	4604      	mov	r4, r0
 80036c4:	2800      	cmp	r0, #0
 80036c6:	d0d2      	beq.n	800366e <osMutexNew+0xa>
 80036c8:	2d00      	cmp	r5, #0
 80036ca:	d1f2      	bne.n	80036b2 <osMutexNew+0x4e>
 80036cc:	4629      	mov	r1, r5
 80036ce:	4620      	mov	r0, r4
 80036d0:	f001 f822 	bl	8004718 <vQueueAddToRegistry>
 80036d4:	2e00      	cmp	r6, #0
 80036d6:	d0cb      	beq.n	8003670 <osMutexNew+0xc>
 80036d8:	f044 0401 	orr.w	r4, r4, #1
 80036dc:	e7c8      	b.n	8003670 <osMutexNew+0xc>
 80036de:	2001      	movs	r0, #1
 80036e0:	e7e2      	b.n	80036a8 <osMutexNew+0x44>
 80036e2:	2001      	movs	r0, #1
 80036e4:	e7eb      	b.n	80036be <osMutexNew+0x5a>
 80036e6:	bf00      	nop
 80036e8:	20001208 	.word	0x20001208

080036ec <osMutexAcquire>:
 80036ec:	4603      	mov	r3, r0
 80036ee:	b510      	push	{r4, lr}
 80036f0:	f020 0001 	bic.w	r0, r0, #1
 80036f4:	460c      	mov	r4, r1
 80036f6:	f003 0301 	and.w	r3, r3, #1
 80036fa:	f3ef 8205 	mrs	r2, IPSR
 80036fe:	b112      	cbz	r2, 8003706 <osMutexAcquire+0x1a>
 8003700:	f06f 0005 	mvn.w	r0, #5
 8003704:	bd10      	pop	{r4, pc}
 8003706:	f3ef 8210 	mrs	r2, PRIMASK
 800370a:	2a00      	cmp	r2, #0
 800370c:	d1f8      	bne.n	8003700 <osMutexAcquire+0x14>
 800370e:	4a0f      	ldr	r2, [pc, #60]	; (800374c <osMutexAcquire+0x60>)
 8003710:	6812      	ldr	r2, [r2, #0]
 8003712:	2a02      	cmp	r2, #2
 8003714:	d103      	bne.n	800371e <osMutexAcquire+0x32>
 8003716:	f3ef 8211 	mrs	r2, BASEPRI
 800371a:	2a00      	cmp	r2, #0
 800371c:	d1f0      	bne.n	8003700 <osMutexAcquire+0x14>
 800371e:	b188      	cbz	r0, 8003744 <osMutexAcquire+0x58>
 8003720:	4621      	mov	r1, r4
 8003722:	b163      	cbz	r3, 800373e <osMutexAcquire+0x52>
 8003724:	f000 ff88 	bl	8004638 <xQueueTakeMutexRecursive>
 8003728:	2801      	cmp	r0, #1
 800372a:	d101      	bne.n	8003730 <osMutexAcquire+0x44>
 800372c:	2000      	movs	r0, #0
 800372e:	e7e9      	b.n	8003704 <osMutexAcquire+0x18>
 8003730:	2c00      	cmp	r4, #0
 8003732:	bf14      	ite	ne
 8003734:	f06f 0001 	mvnne.w	r0, #1
 8003738:	f06f 0002 	mvneq.w	r0, #2
 800373c:	e7e2      	b.n	8003704 <osMutexAcquire+0x18>
 800373e:	f000 feb8 	bl	80044b2 <xQueueSemaphoreTake>
 8003742:	e7f1      	b.n	8003728 <osMutexAcquire+0x3c>
 8003744:	f06f 0003 	mvn.w	r0, #3
 8003748:	e7dc      	b.n	8003704 <osMutexAcquire+0x18>
 800374a:	bf00      	nop
 800374c:	20001208 	.word	0x20001208

08003750 <osMutexRelease>:
 8003750:	b508      	push	{r3, lr}
 8003752:	4603      	mov	r3, r0
 8003754:	f020 0001 	bic.w	r0, r0, #1
 8003758:	f003 0301 	and.w	r3, r3, #1
 800375c:	f3ef 8205 	mrs	r2, IPSR
 8003760:	b112      	cbz	r2, 8003768 <osMutexRelease+0x18>
 8003762:	f06f 0005 	mvn.w	r0, #5
 8003766:	bd08      	pop	{r3, pc}
 8003768:	f3ef 8210 	mrs	r2, PRIMASK
 800376c:	2a00      	cmp	r2, #0
 800376e:	d1f8      	bne.n	8003762 <osMutexRelease+0x12>
 8003770:	4a0c      	ldr	r2, [pc, #48]	; (80037a4 <osMutexRelease+0x54>)
 8003772:	6812      	ldr	r2, [r2, #0]
 8003774:	2a02      	cmp	r2, #2
 8003776:	d103      	bne.n	8003780 <osMutexRelease+0x30>
 8003778:	f3ef 8211 	mrs	r2, BASEPRI
 800377c:	2a00      	cmp	r2, #0
 800377e:	d1f0      	bne.n	8003762 <osMutexRelease+0x12>
 8003780:	b168      	cbz	r0, 800379e <osMutexRelease+0x4e>
 8003782:	b13b      	cbz	r3, 8003794 <osMutexRelease+0x44>
 8003784:	f000 fd06 	bl	8004194 <xQueueGiveMutexRecursive>
 8003788:	2801      	cmp	r0, #1
 800378a:	bf0c      	ite	eq
 800378c:	2000      	moveq	r0, #0
 800378e:	f06f 0002 	mvnne.w	r0, #2
 8003792:	e7e8      	b.n	8003766 <osMutexRelease+0x16>
 8003794:	461a      	mov	r2, r3
 8003796:	4619      	mov	r1, r3
 8003798:	f000 fc34 	bl	8004004 <xQueueGenericSend>
 800379c:	e7f4      	b.n	8003788 <osMutexRelease+0x38>
 800379e:	f06f 0003 	mvn.w	r0, #3
 80037a2:	e7e0      	b.n	8003766 <osMutexRelease+0x16>
 80037a4:	20001208 	.word	0x20001208

080037a8 <osSemaphoreNew>:
 80037a8:	b573      	push	{r0, r1, r4, r5, r6, lr}
 80037aa:	460e      	mov	r6, r1
 80037ac:	4615      	mov	r5, r2
 80037ae:	f3ef 8305 	mrs	r3, IPSR
 80037b2:	b11b      	cbz	r3, 80037bc <osSemaphoreNew+0x14>
 80037b4:	2400      	movs	r4, #0
 80037b6:	4620      	mov	r0, r4
 80037b8:	b002      	add	sp, #8
 80037ba:	bd70      	pop	{r4, r5, r6, pc}
 80037bc:	f3ef 8310 	mrs	r3, PRIMASK
 80037c0:	2b00      	cmp	r3, #0
 80037c2:	d1f7      	bne.n	80037b4 <osSemaphoreNew+0xc>
 80037c4:	4b23      	ldr	r3, [pc, #140]	; (8003854 <osSemaphoreNew+0xac>)
 80037c6:	681b      	ldr	r3, [r3, #0]
 80037c8:	2b02      	cmp	r3, #2
 80037ca:	d103      	bne.n	80037d4 <osSemaphoreNew+0x2c>
 80037cc:	f3ef 8311 	mrs	r3, BASEPRI
 80037d0:	2b00      	cmp	r3, #0
 80037d2:	d1ef      	bne.n	80037b4 <osSemaphoreNew+0xc>
 80037d4:	2800      	cmp	r0, #0
 80037d6:	d0ed      	beq.n	80037b4 <osSemaphoreNew+0xc>
 80037d8:	42b0      	cmp	r0, r6
 80037da:	d3eb      	bcc.n	80037b4 <osSemaphoreNew+0xc>
 80037dc:	b1ed      	cbz	r5, 800381a <osSemaphoreNew+0x72>
 80037de:	e9d5 3202 	ldrd	r3, r2, [r5, #8]
 80037e2:	b1c3      	cbz	r3, 8003816 <osSemaphoreNew+0x6e>
 80037e4:	2a4f      	cmp	r2, #79	; 0x4f
 80037e6:	d9e5      	bls.n	80037b4 <osSemaphoreNew+0xc>
 80037e8:	2801      	cmp	r0, #1
 80037ea:	d129      	bne.n	8003840 <osSemaphoreNew+0x98>
 80037ec:	2203      	movs	r2, #3
 80037ee:	9200      	str	r2, [sp, #0]
 80037f0:	2200      	movs	r2, #0
 80037f2:	4611      	mov	r1, r2
 80037f4:	f000 fb52 	bl	8003e9c <xQueueGenericCreateStatic>
 80037f8:	4604      	mov	r4, r0
 80037fa:	2800      	cmp	r0, #0
 80037fc:	d0da      	beq.n	80037b4 <osSemaphoreNew+0xc>
 80037fe:	b1ce      	cbz	r6, 8003834 <osSemaphoreNew+0x8c>
 8003800:	2300      	movs	r3, #0
 8003802:	461a      	mov	r2, r3
 8003804:	4619      	mov	r1, r3
 8003806:	f000 fbfd 	bl	8004004 <xQueueGenericSend>
 800380a:	2801      	cmp	r0, #1
 800380c:	d012      	beq.n	8003834 <osSemaphoreNew+0x8c>
 800380e:	4620      	mov	r0, r4
 8003810:	f000 ffa8 	bl	8004764 <vQueueDelete>
 8003814:	e7ce      	b.n	80037b4 <osSemaphoreNew+0xc>
 8003816:	2a00      	cmp	r2, #0
 8003818:	d1cc      	bne.n	80037b4 <osSemaphoreNew+0xc>
 800381a:	2801      	cmp	r0, #1
 800381c:	d104      	bne.n	8003828 <osSemaphoreNew+0x80>
 800381e:	2203      	movs	r2, #3
 8003820:	2100      	movs	r1, #0
 8003822:	f000 fb88 	bl	8003f36 <xQueueGenericCreate>
 8003826:	e7e7      	b.n	80037f8 <osSemaphoreNew+0x50>
 8003828:	4631      	mov	r1, r6
 800382a:	f000 fbcd 	bl	8003fc8 <xQueueCreateCountingSemaphore>
 800382e:	4604      	mov	r4, r0
 8003830:	2800      	cmp	r0, #0
 8003832:	d0bf      	beq.n	80037b4 <osSemaphoreNew+0xc>
 8003834:	b95d      	cbnz	r5, 800384e <osSemaphoreNew+0xa6>
 8003836:	4629      	mov	r1, r5
 8003838:	4620      	mov	r0, r4
 800383a:	f000 ff6d 	bl	8004718 <vQueueAddToRegistry>
 800383e:	e7ba      	b.n	80037b6 <osSemaphoreNew+0xe>
 8003840:	461a      	mov	r2, r3
 8003842:	4631      	mov	r1, r6
 8003844:	f000 fb9e 	bl	8003f84 <xQueueCreateCountingSemaphoreStatic>
 8003848:	4604      	mov	r4, r0
 800384a:	2800      	cmp	r0, #0
 800384c:	d0b2      	beq.n	80037b4 <osSemaphoreNew+0xc>
 800384e:	682d      	ldr	r5, [r5, #0]
 8003850:	e7f1      	b.n	8003836 <osSemaphoreNew+0x8e>
 8003852:	bf00      	nop
 8003854:	20001208 	.word	0x20001208

08003858 <osSemaphoreAcquire>:
 8003858:	b513      	push	{r0, r1, r4, lr}
 800385a:	460c      	mov	r4, r1
 800385c:	b918      	cbnz	r0, 8003866 <osSemaphoreAcquire+0xe>
 800385e:	f06f 0003 	mvn.w	r0, #3
 8003862:	b002      	add	sp, #8
 8003864:	bd10      	pop	{r4, pc}
 8003866:	f3ef 8305 	mrs	r3, IPSR
 800386a:	b163      	cbz	r3, 8003886 <osSemaphoreAcquire+0x2e>
 800386c:	2c00      	cmp	r4, #0
 800386e:	d1f6      	bne.n	800385e <osSemaphoreAcquire+0x6>
 8003870:	4621      	mov	r1, r4
 8003872:	aa01      	add	r2, sp, #4
 8003874:	9401      	str	r4, [sp, #4]
 8003876:	f000 ff00 	bl	800467a <xQueueReceiveFromISR>
 800387a:	2801      	cmp	r0, #1
 800387c:	d115      	bne.n	80038aa <osSemaphoreAcquire+0x52>
 800387e:	9b01      	ldr	r3, [sp, #4]
 8003880:	b9b3      	cbnz	r3, 80038b0 <osSemaphoreAcquire+0x58>
 8003882:	2000      	movs	r0, #0
 8003884:	e7ed      	b.n	8003862 <osSemaphoreAcquire+0xa>
 8003886:	f3ef 8310 	mrs	r3, PRIMASK
 800388a:	2b00      	cmp	r3, #0
 800388c:	d1ee      	bne.n	800386c <osSemaphoreAcquire+0x14>
 800388e:	4b0f      	ldr	r3, [pc, #60]	; (80038cc <osSemaphoreAcquire+0x74>)
 8003890:	681b      	ldr	r3, [r3, #0]
 8003892:	2b02      	cmp	r3, #2
 8003894:	d103      	bne.n	800389e <osSemaphoreAcquire+0x46>
 8003896:	f3ef 8311 	mrs	r3, BASEPRI
 800389a:	2b00      	cmp	r3, #0
 800389c:	d1e6      	bne.n	800386c <osSemaphoreAcquire+0x14>
 800389e:	4621      	mov	r1, r4
 80038a0:	f000 fe07 	bl	80044b2 <xQueueSemaphoreTake>
 80038a4:	2801      	cmp	r0, #1
 80038a6:	d0ec      	beq.n	8003882 <osSemaphoreAcquire+0x2a>
 80038a8:	b96c      	cbnz	r4, 80038c6 <osSemaphoreAcquire+0x6e>
 80038aa:	f06f 0002 	mvn.w	r0, #2
 80038ae:	e7d8      	b.n	8003862 <osSemaphoreAcquire+0xa>
 80038b0:	f04f 23e0 	mov.w	r3, #3758153728	; 0xe000e000
 80038b4:	f04f 5280 	mov.w	r2, #268435456	; 0x10000000
 80038b8:	f8c3 2d04 	str.w	r2, [r3, #3332]	; 0xd04
 80038bc:	f3bf 8f4f 	dsb	sy
 80038c0:	f3bf 8f6f 	isb	sy
 80038c4:	e7dd      	b.n	8003882 <osSemaphoreAcquire+0x2a>
 80038c6:	f06f 0001 	mvn.w	r0, #1
 80038ca:	e7ca      	b.n	8003862 <osSemaphoreAcquire+0xa>
 80038cc:	20001208 	.word	0x20001208

080038d0 <osSemaphoreRelease>:
 80038d0:	b513      	push	{r0, r1, r4, lr}
 80038d2:	b380      	cbz	r0, 8003936 <osSemaphoreRelease+0x66>
 80038d4:	f3ef 8305 	mrs	r3, IPSR
 80038d8:	b14b      	cbz	r3, 80038ee <osSemaphoreRelease+0x1e>
 80038da:	2400      	movs	r4, #0
 80038dc:	a901      	add	r1, sp, #4
 80038de:	9401      	str	r4, [sp, #4]
 80038e0:	f000 fcf4 	bl	80042cc <xQueueGiveFromISR>
 80038e4:	2801      	cmp	r0, #1
 80038e6:	d016      	beq.n	8003916 <osSemaphoreRelease+0x46>
 80038e8:	f06f 0002 	mvn.w	r0, #2
 80038ec:	e016      	b.n	800391c <osSemaphoreRelease+0x4c>
 80038ee:	f3ef 8310 	mrs	r3, PRIMASK
 80038f2:	2b00      	cmp	r3, #0
 80038f4:	d1f1      	bne.n	80038da <osSemaphoreRelease+0xa>
 80038f6:	4b11      	ldr	r3, [pc, #68]	; (800393c <osSemaphoreRelease+0x6c>)
 80038f8:	681b      	ldr	r3, [r3, #0]
 80038fa:	2b02      	cmp	r3, #2
 80038fc:	d103      	bne.n	8003906 <osSemaphoreRelease+0x36>
 80038fe:	f3ef 8311 	mrs	r3, BASEPRI
 8003902:	2b00      	cmp	r3, #0
 8003904:	d1e9      	bne.n	80038da <osSemaphoreRelease+0xa>
 8003906:	2300      	movs	r3, #0
 8003908:	461a      	mov	r2, r3
 800390a:	4619      	mov	r1, r3
 800390c:	f000 fb7a 	bl	8004004 <xQueueGenericSend>
 8003910:	2801      	cmp	r0, #1
 8003912:	d002      	beq.n	800391a <osSemaphoreRelease+0x4a>
 8003914:	e7e8      	b.n	80038e8 <osSemaphoreRelease+0x18>
 8003916:	9b01      	ldr	r3, [sp, #4]
 8003918:	b913      	cbnz	r3, 8003920 <osSemaphoreRelease+0x50>
 800391a:	2000      	movs	r0, #0
 800391c:	b002      	add	sp, #8
 800391e:	bd10      	pop	{r4, pc}
 8003920:	f04f 23e0 	mov.w	r3, #3758153728	; 0xe000e000
 8003924:	f04f 5280 	mov.w	r2, #268435456	; 0x10000000
 8003928:	f8c3 2d04 	str.w	r2, [r3, #3332]	; 0xd04
 800392c:	f3bf 8f4f 	dsb	sy
 8003930:	f3bf 8f6f 	isb	sy
 8003934:	e7f1      	b.n	800391a <osSemaphoreRelease+0x4a>
 8003936:	f06f 0003 	mvn.w	r0, #3
 800393a:	e7ef      	b.n	800391c <osSemaphoreRelease+0x4c>
 800393c:	20001208 	.word	0x20001208

08003940 <osMessageQueueNew>:
 8003940:	b573      	push	{r0, r1, r4, r5, r6, lr}
 8003942:	4614      	mov	r4, r2
 8003944:	f3ef 8305 	mrs	r3, IPSR
 8003948:	b11b      	cbz	r3, 8003952 <osMessageQueueNew+0x12>
 800394a:	2500      	movs	r5, #0
 800394c:	4628      	mov	r0, r5
 800394e:	b002      	add	sp, #8
 8003950:	bd70      	pop	{r4, r5, r6, pc}
 8003952:	f3ef 8310 	mrs	r3, PRIMASK
 8003956:	2b00      	cmp	r3, #0
 8003958:	d1f7      	bne.n	800394a <osMessageQueueNew+0xa>
 800395a:	4b1c      	ldr	r3, [pc, #112]	; (80039cc <osMessageQueueNew+0x8c>)
 800395c:	681b      	ldr	r3, [r3, #0]
 800395e:	2b02      	cmp	r3, #2
 8003960:	d103      	bne.n	800396a <osMessageQueueNew+0x2a>
 8003962:	f3ef 8311 	mrs	r3, BASEPRI
 8003966:	2b00      	cmp	r3, #0
 8003968:	d1ef      	bne.n	800394a <osMessageQueueNew+0xa>
 800396a:	2800      	cmp	r0, #0
 800396c:	d0ed      	beq.n	800394a <osMessageQueueNew+0xa>
 800396e:	2900      	cmp	r1, #0
 8003970:	d0eb      	beq.n	800394a <osMessageQueueNew+0xa>
 8003972:	b1ec      	cbz	r4, 80039b0 <osMessageQueueNew+0x70>
 8003974:	e9d4 3202 	ldrd	r3, r2, [r4, #8]
 8003978:	b193      	cbz	r3, 80039a0 <osMessageQueueNew+0x60>
 800397a:	2a4f      	cmp	r2, #79	; 0x4f
 800397c:	d9e5      	bls.n	800394a <osMessageQueueNew+0xa>
 800397e:	6922      	ldr	r2, [r4, #16]
 8003980:	2a00      	cmp	r2, #0
 8003982:	d0e2      	beq.n	800394a <osMessageQueueNew+0xa>
 8003984:	fb01 f500 	mul.w	r5, r1, r0
 8003988:	6966      	ldr	r6, [r4, #20]
 800398a:	42ae      	cmp	r6, r5
 800398c:	d3dd      	bcc.n	800394a <osMessageQueueNew+0xa>
 800398e:	2500      	movs	r5, #0
 8003990:	9500      	str	r5, [sp, #0]
 8003992:	f000 fa83 	bl	8003e9c <xQueueGenericCreateStatic>
 8003996:	4605      	mov	r5, r0
 8003998:	2800      	cmp	r0, #0
 800399a:	d0d6      	beq.n	800394a <osMessageQueueNew+0xa>
 800399c:	6824      	ldr	r4, [r4, #0]
 800399e:	e00f      	b.n	80039c0 <osMessageQueueNew+0x80>
 80039a0:	2a00      	cmp	r2, #0
 80039a2:	d1d2      	bne.n	800394a <osMessageQueueNew+0xa>
 80039a4:	6923      	ldr	r3, [r4, #16]
 80039a6:	2b00      	cmp	r3, #0
 80039a8:	d1cf      	bne.n	800394a <osMessageQueueNew+0xa>
 80039aa:	6963      	ldr	r3, [r4, #20]
 80039ac:	2b00      	cmp	r3, #0
 80039ae:	d1cc      	bne.n	800394a <osMessageQueueNew+0xa>
 80039b0:	2200      	movs	r2, #0
 80039b2:	f000 fac0 	bl	8003f36 <xQueueGenericCreate>
 80039b6:	4605      	mov	r5, r0
 80039b8:	2800      	cmp	r0, #0
 80039ba:	d0c6      	beq.n	800394a <osMessageQueueNew+0xa>
 80039bc:	2c00      	cmp	r4, #0
 80039be:	d1ed      	bne.n	800399c <osMessageQueueNew+0x5c>
 80039c0:	4621      	mov	r1, r4
 80039c2:	4628      	mov	r0, r5
 80039c4:	f000 fea8 	bl	8004718 <vQueueAddToRegistry>
 80039c8:	e7c0      	b.n	800394c <osMessageQueueNew+0xc>
 80039ca:	bf00      	nop
 80039cc:	20001208 	.word	0x20001208

080039d0 <osMessageQueuePut>:
 80039d0:	b513      	push	{r0, r1, r4, lr}
 80039d2:	461c      	mov	r4, r3
 80039d4:	f3ef 8305 	mrs	r3, IPSR
 80039d8:	b123      	cbz	r3, 80039e4 <osMessageQueuePut+0x14>
 80039da:	b9e8      	cbnz	r0, 8003a18 <osMessageQueuePut+0x48>
 80039dc:	f06f 0003 	mvn.w	r0, #3
 80039e0:	b002      	add	sp, #8
 80039e2:	bd10      	pop	{r4, pc}
 80039e4:	f3ef 8310 	mrs	r3, PRIMASK
 80039e8:	2b00      	cmp	r3, #0
 80039ea:	d1f6      	bne.n	80039da <osMessageQueuePut+0xa>
 80039ec:	4b19      	ldr	r3, [pc, #100]	; (8003a54 <osMessageQueuePut+0x84>)
 80039ee:	681b      	ldr	r3, [r3, #0]
 80039f0:	2b02      	cmp	r3, #2
 80039f2:	d103      	bne.n	80039fc <osMessageQueuePut+0x2c>
 80039f4:	f3ef 8311 	mrs	r3, BASEPRI
 80039f8:	2b00      	cmp	r3, #0
 80039fa:	d1ee      	bne.n	80039da <osMessageQueuePut+0xa>
 80039fc:	2800      	cmp	r0, #0
 80039fe:	d0ed      	beq.n	80039dc <osMessageQueuePut+0xc>
 8003a00:	2900      	cmp	r1, #0
 8003a02:	d0eb      	beq.n	80039dc <osMessageQueuePut+0xc>
 8003a04:	2300      	movs	r3, #0
 8003a06:	4622      	mov	r2, r4
 8003a08:	f000 fafc 	bl	8004004 <xQueueGenericSend>
 8003a0c:	2801      	cmp	r0, #1
 8003a0e:	d010      	beq.n	8003a32 <osMessageQueuePut+0x62>
 8003a10:	b9e4      	cbnz	r4, 8003a4c <osMessageQueuePut+0x7c>
 8003a12:	f06f 0002 	mvn.w	r0, #2
 8003a16:	e7e3      	b.n	80039e0 <osMessageQueuePut+0x10>
 8003a18:	2900      	cmp	r1, #0
 8003a1a:	d0df      	beq.n	80039dc <osMessageQueuePut+0xc>
 8003a1c:	2c00      	cmp	r4, #0
 8003a1e:	d1dd      	bne.n	80039dc <osMessageQueuePut+0xc>
 8003a20:	4623      	mov	r3, r4
 8003a22:	aa01      	add	r2, sp, #4
 8003a24:	9401      	str	r4, [sp, #4]
 8003a26:	f000 fbf0 	bl	800420a <xQueueGenericSendFromISR>
 8003a2a:	2801      	cmp	r0, #1
 8003a2c:	d1f1      	bne.n	8003a12 <osMessageQueuePut+0x42>
 8003a2e:	9b01      	ldr	r3, [sp, #4]
 8003a30:	b90b      	cbnz	r3, 8003a36 <osMessageQueuePut+0x66>
 8003a32:	2000      	movs	r0, #0
 8003a34:	e7d4      	b.n	80039e0 <osMessageQueuePut+0x10>
 8003a36:	f04f 23e0 	mov.w	r3, #3758153728	; 0xe000e000
 8003a3a:	f04f 5280 	mov.w	r2, #268435456	; 0x10000000
 8003a3e:	f8c3 2d04 	str.w	r2, [r3, #3332]	; 0xd04
 8003a42:	f3bf 8f4f 	dsb	sy
 8003a46:	f3bf 8f6f 	isb	sy
 8003a4a:	e7f2      	b.n	8003a32 <osMessageQueuePut+0x62>
 8003a4c:	f06f 0001 	mvn.w	r0, #1
 8003a50:	e7c6      	b.n	80039e0 <osMessageQueuePut+0x10>
 8003a52:	bf00      	nop
 8003a54:	20001208 	.word	0x20001208

08003a58 <osMessageQueueGet>:
 8003a58:	b513      	push	{r0, r1, r4, lr}
 8003a5a:	461c      	mov	r4, r3
 8003a5c:	f3ef 8305 	mrs	r3, IPSR
 8003a60:	b123      	cbz	r3, 8003a6c <osMessageQueueGet+0x14>
 8003a62:	b9e0      	cbnz	r0, 8003a9e <osMessageQueueGet+0x46>
 8003a64:	f06f 0003 	mvn.w	r0, #3
 8003a68:	b002      	add	sp, #8
 8003a6a:	bd10      	pop	{r4, pc}
 8003a6c:	f3ef 8310 	mrs	r3, PRIMASK
 8003a70:	2b00      	cmp	r3, #0
 8003a72:	d1f6      	bne.n	8003a62 <osMessageQueueGet+0xa>
 8003a74:	4b18      	ldr	r3, [pc, #96]	; (8003ad8 <osMessageQueueGet+0x80>)
 8003a76:	681b      	ldr	r3, [r3, #0]
 8003a78:	2b02      	cmp	r3, #2
 8003a7a:	d103      	bne.n	8003a84 <osMessageQueueGet+0x2c>
 8003a7c:	f3ef 8311 	mrs	r3, BASEPRI
 8003a80:	2b00      	cmp	r3, #0
 8003a82:	d1ee      	bne.n	8003a62 <osMessageQueueGet+0xa>
 8003a84:	2800      	cmp	r0, #0
 8003a86:	d0ed      	beq.n	8003a64 <osMessageQueueGet+0xc>
 8003a88:	2900      	cmp	r1, #0
 8003a8a:	d0eb      	beq.n	8003a64 <osMessageQueueGet+0xc>
 8003a8c:	4622      	mov	r2, r4
 8003a8e:	f000 fc71 	bl	8004374 <xQueueReceive>
 8003a92:	2801      	cmp	r0, #1
 8003a94:	d00f      	beq.n	8003ab6 <osMessageQueueGet+0x5e>
 8003a96:	b9dc      	cbnz	r4, 8003ad0 <osMessageQueueGet+0x78>
 8003a98:	f06f 0002 	mvn.w	r0, #2
 8003a9c:	e7e4      	b.n	8003a68 <osMessageQueueGet+0x10>
 8003a9e:	2900      	cmp	r1, #0
 8003aa0:	d0e0      	beq.n	8003a64 <osMessageQueueGet+0xc>
 8003aa2:	2c00      	cmp	r4, #0
 8003aa4:	d1de      	bne.n	8003a64 <osMessageQueueGet+0xc>
 8003aa6:	aa01      	add	r2, sp, #4
 8003aa8:	9401      	str	r4, [sp, #4]
 8003aaa:	f000 fde6 	bl	800467a <xQueueReceiveFromISR>
 8003aae:	2801      	cmp	r0, #1
 8003ab0:	d1f2      	bne.n	8003a98 <osMessageQueueGet+0x40>
 8003ab2:	9b01      	ldr	r3, [sp, #4]
 8003ab4:	b90b      	cbnz	r3, 8003aba <osMessageQueueGet+0x62>
 8003ab6:	2000      	movs	r0, #0
 8003ab8:	e7d6      	b.n	8003a68 <osMessageQueueGet+0x10>
 8003aba:	f04f 23e0 	mov.w	r3, #3758153728	; 0xe000e000
 8003abe:	f04f 5280 	mov.w	r2, #268435456	; 0x10000000
 8003ac2:	f8c3 2d04 	str.w	r2, [r3, #3332]	; 0xd04
 8003ac6:	f3bf 8f4f 	dsb	sy
 8003aca:	f3bf 8f6f 	isb	sy
 8003ace:	e7f2      	b.n	8003ab6 <osMessageQueueGet+0x5e>
 8003ad0:	f06f 0001 	mvn.w	r0, #1
 8003ad4:	e7c8      	b.n	8003a68 <osMessageQueueGet+0x10>
 8003ad6:	bf00      	nop
 8003ad8:	20001208 	.word	0x20001208

08003adc <vApplicationGetIdleTaskMemory>:
 8003adc:	4b03      	ldr	r3, [pc, #12]	; (8003aec <vApplicationGetIdleTaskMemory+0x10>)
 8003ade:	6003      	str	r3, [r0, #0]
 8003ae0:	4b03      	ldr	r3, [pc, #12]	; (8003af0 <vApplicationGetIdleTaskMemory+0x14>)
 8003ae2:	600b      	str	r3, [r1, #0]
 8003ae4:	2380      	movs	r3, #128	; 0x80
 8003ae6:	6013      	str	r3, [r2, #0]
 8003ae8:	4770      	bx	lr
 8003aea:	bf00      	nop
 8003aec:	20001148 	.word	0x20001148
 8003af0:	20000f48 	.word	0x20000f48

08003af4 <vApplicationGetTimerTaskMemory>:
 8003af4:	4b03      	ldr	r3, [pc, #12]	; (8003b04 <vApplicationGetTimerTaskMemory+0x10>)
 8003af6:	6003      	str	r3, [r0, #0]
 8003af8:	4b03      	ldr	r3, [pc, #12]	; (8003b08 <vApplicationGetTimerTaskMemory+0x14>)
 8003afa:	600b      	str	r3, [r1, #0]
 8003afc:	f44f 7380 	mov.w	r3, #256	; 0x100
 8003b00:	6013      	str	r3, [r2, #0]
 8003b02:	4770      	bx	lr
 8003b04:	2000160c 	.word	0x2000160c
 8003b08:	2000120c 	.word	0x2000120c

08003b0c <xEventGroupCreateStatic>:
 8003b0c:	b513      	push	{r0, r1, r4, lr}
 8003b0e:	4604      	mov	r4, r0
 8003b10:	b940      	cbnz	r0, 8003b24 <xEventGroupCreateStatic+0x18>
 8003b12:	f04f 0350 	mov.w	r3, #80	; 0x50
 8003b16:	f383 8811 	msr	BASEPRI, r3
 8003b1a:	f3bf 8f6f 	isb	sy
 8003b1e:	f3bf 8f4f 	dsb	sy
 8003b22:	e7fe      	b.n	8003b22 <xEventGroupCreateStatic+0x16>
 8003b24:	2320      	movs	r3, #32
 8003b26:	9301      	str	r3, [sp, #4]
 8003b28:	9b01      	ldr	r3, [sp, #4]
 8003b2a:	2b20      	cmp	r3, #32
 8003b2c:	d008      	beq.n	8003b40 <xEventGroupCreateStatic+0x34>
 8003b2e:	f04f 0350 	mov.w	r3, #80	; 0x50
 8003b32:	f383 8811 	msr	BASEPRI, r3
 8003b36:	f3bf 8f6f 	isb	sy
 8003b3a:	f3bf 8f4f 	dsb	sy
 8003b3e:	e7fe      	b.n	8003b3e <xEventGroupCreateStatic+0x32>
 8003b40:	2300      	movs	r3, #0
 8003b42:	f840 3b04 	str.w	r3, [r0], #4
 8003b46:	f000 f89d 	bl	8003c84 <vListInitialise>
 8003b4a:	2301      	movs	r3, #1
 8003b4c:	4620      	mov	r0, r4
 8003b4e:	7723      	strb	r3, [r4, #28]
 8003b50:	b002      	add	sp, #8
 8003b52:	bd10      	pop	{r4, pc}

08003b54 <xEventGroupCreate>:
 8003b54:	b538      	push	{r3, r4, r5, lr}
 8003b56:	2020      	movs	r0, #32
 8003b58:	f001 ffa2 	bl	8005aa0 <pvPortMalloc>
 8003b5c:	4604      	mov	r4, r0
 8003b5e:	b128      	cbz	r0, 8003b6c <xEventGroupCreate+0x18>
 8003b60:	2500      	movs	r5, #0
 8003b62:	f840 5b04 	str.w	r5, [r0], #4
 8003b66:	f000 f88d 	bl	8003c84 <vListInitialise>
 8003b6a:	7725      	strb	r5, [r4, #28]
 8003b6c:	4620      	mov	r0, r4
 8003b6e:	bd38      	pop	{r3, r4, r5, pc}

08003b70 <xEventGroupClearBits>:
 8003b70:	b570      	push	{r4, r5, r6, lr}
 8003b72:	460c      	mov	r4, r1
 8003b74:	4605      	mov	r5, r0
 8003b76:	b940      	cbnz	r0, 8003b8a <xEventGroupClearBits+0x1a>
 8003b78:	f04f 0350 	mov.w	r3, #80	; 0x50
 8003b7c:	f383 8811 	msr	BASEPRI, r3
 8003b80:	f3bf 8f6f 	isb	sy
 8003b84:	f3bf 8f4f 	dsb	sy
 8003b88:	e7fe      	b.n	8003b88 <xEventGroupClearBits+0x18>
 8003b8a:	f011 4f7f 	tst.w	r1, #4278190080	; 0xff000000
 8003b8e:	d008      	beq.n	8003ba2 <xEventGroupClearBits+0x32>
 8003b90:	f04f 0350 	mov.w	r3, #80	; 0x50
 8003b94:	f383 8811 	msr	BASEPRI, r3
 8003b98:	f3bf 8f6f 	isb	sy
 8003b9c:	f3bf 8f4f 	dsb	sy
 8003ba0:	e7fe      	b.n	8003ba0 <xEventGroupClearBits+0x30>
 8003ba2:	f001 fe4f 	bl	8005844 <vPortEnterCritical>
 8003ba6:	682e      	ldr	r6, [r5, #0]
 8003ba8:	ea26 0404 	bic.w	r4, r6, r4
 8003bac:	602c      	str	r4, [r5, #0]
 8003bae:	f001 fe69 	bl	8005884 <vPortExitCritical>
 8003bb2:	4630      	mov	r0, r6
 8003bb4:	bd70      	pop	{r4, r5, r6, pc}

08003bb6 <vEventGroupClearBitsCallback>:
 8003bb6:	f7ff bfdb 	b.w	8003b70 <xEventGroupClearBits>
	...

08003bbc <xEventGroupClearBitsFromISR>:
 8003bbc:	460a      	mov	r2, r1
 8003bbe:	2300      	movs	r3, #0
 8003bc0:	4601      	mov	r1, r0
 8003bc2:	4801      	ldr	r0, [pc, #4]	; (8003bc8 <xEventGroupClearBitsFromISR+0xc>)
 8003bc4:	f001 bdd2 	b.w	800576c <xTimerPendFunctionCallFromISR>
 8003bc8:	08003bb7 	.word	0x08003bb7

08003bcc <xEventGroupGetBitsFromISR>:
 8003bcc:	f3ef 8311 	mrs	r3, BASEPRI
 8003bd0:	f04f 0250 	mov.w	r2, #80	; 0x50
 8003bd4:	f382 8811 	msr	BASEPRI, r2
 8003bd8:	f3bf 8f6f 	isb	sy
 8003bdc:	f3bf 8f4f 	dsb	sy
 8003be0:	6800      	ldr	r0, [r0, #0]
 8003be2:	f383 8811 	msr	BASEPRI, r3
 8003be6:	4770      	bx	lr

08003be8 <xEventGroupSetBits>:
 8003be8:	e92d 41f0 	stmdb	sp!, {r4, r5, r6, r7, r8, lr}
 8003bec:	460d      	mov	r5, r1
 8003bee:	4604      	mov	r4, r0
 8003bf0:	b940      	cbnz	r0, 8003c04 <xEventGroupSetBits+0x1c>
 8003bf2:	f04f 0350 	mov.w	r3, #80	; 0x50
 8003bf6:	f383 8811 	msr	BASEPRI, r3
 8003bfa:	f3bf 8f6f 	isb	sy
 8003bfe:	f3bf 8f4f 	dsb	sy
 8003c02:	e7fe      	b.n	8003c02 <xEventGroupSetBits+0x1a>
 8003c04:	f011 467f 	ands.w	r6, r1, #4278190080	; 0xff000000
 8003c08:	d008      	beq.n	8003c1c <xEventGroupSetBits+0x34>
 8003c0a:	f04f 0350 	mov.w	r3, #80	; 0x50
 8003c0e:	f383 8811 	msr	BASEPRI, r3
 8003c12:	f3bf 8f6f 	isb	sy
 8003c16:	f3bf 8f4f 	dsb	sy
 8003c1a:	e7fe      	b.n	8003c1a <xEventGroupSetBits+0x32>
 8003c1c:	f100 070c 	add.w	r7, r0, #12
 8003c20:	f001 f800 	bl	8004c24 <vTaskSuspendAll>
 8003c24:	6821      	ldr	r1, [r4, #0]
 8003c26:	6920      	ldr	r0, [r4, #16]
 8003c28:	4329      	orrs	r1, r5
 8003c2a:	6021      	str	r1, [r4, #0]
 8003c2c:	4287      	cmp	r7, r0
 8003c2e:	6821      	ldr	r1, [r4, #0]
 8003c30:	d107      	bne.n	8003c42 <xEventGroupSetBits+0x5a>
 8003c32:	ea21 0106 	bic.w	r1, r1, r6
 8003c36:	6021      	str	r1, [r4, #0]
 8003c38:	f001 f89a 	bl	8004d70 <xTaskResumeAll>
 8003c3c:	6820      	ldr	r0, [r4, #0]
 8003c3e:	e8bd 81f0 	ldmia.w	sp!, {r4, r5, r6, r7, r8, pc}
 8003c42:	e9d0 2800 	ldrd	r2, r8, [r0]
 8003c46:	f022 437f 	bic.w	r3, r2, #4278190080	; 0xff000000
 8003c4a:	f012 6f80 	tst.w	r2, #67108864	; 0x4000000
 8003c4e:	ea03 0501 	and.w	r5, r3, r1
 8003c52:	d102      	bne.n	8003c5a <xEventGroupSetBits+0x72>
 8003c54:	b91d      	cbnz	r5, 8003c5e <xEventGroupSetBits+0x76>
 8003c56:	4640      	mov	r0, r8
 8003c58:	e7e8      	b.n	8003c2c <xEventGroupSetBits+0x44>
 8003c5a:	42ab      	cmp	r3, r5
 8003c5c:	d1fb      	bne.n	8003c56 <xEventGroupSetBits+0x6e>
 8003c5e:	01d2      	lsls	r2, r2, #7
 8003c60:	f041 7100 	orr.w	r1, r1, #33554432	; 0x2000000
 8003c64:	bf48      	it	mi
 8003c66:	431e      	orrmi	r6, r3
 8003c68:	f001 fa1e 	bl	80050a8 <vTaskRemoveFromUnorderedEventList>
 8003c6c:	e7f3      	b.n	8003c56 <xEventGroupSetBits+0x6e>

08003c6e <vEventGroupSetBitsCallback>:
 8003c6e:	f7ff bfbb 	b.w	8003be8 <xEventGroupSetBits>
	...

08003c74 <xEventGroupSetBitsFromISR>:
 8003c74:	4613      	mov	r3, r2
 8003c76:	460a      	mov	r2, r1
 8003c78:	4601      	mov	r1, r0
 8003c7a:	4801      	ldr	r0, [pc, #4]	; (8003c80 <xEventGroupSetBitsFromISR+0xc>)
 8003c7c:	f001 bd76 	b.w	800576c <xTimerPendFunctionCallFromISR>
 8003c80:	08003c6f 	.word	0x08003c6f

08003c84 <vListInitialise>:
 8003c84:	f04f 32ff 	mov.w	r2, #4294967295
 8003c88:	f100 0308 	add.w	r3, r0, #8
 8003c8c:	e9c0 2302 	strd	r2, r3, [r0, #8]
 8003c90:	6043      	str	r3, [r0, #4]
 8003c92:	6103      	str	r3, [r0, #16]
 8003c94:	2300      	movs	r3, #0
 8003c96:	6003      	str	r3, [r0, #0]
 8003c98:	4770      	bx	lr

08003c9a <vListInitialiseItem>:
 8003c9a:	2300      	movs	r3, #0
 8003c9c:	6103      	str	r3, [r0, #16]
 8003c9e:	4770      	bx	lr

08003ca0 <vListInsertEnd>:
 8003ca0:	6843      	ldr	r3, [r0, #4]
 8003ca2:	689a      	ldr	r2, [r3, #8]
 8003ca4:	604b      	str	r3, [r1, #4]
 8003ca6:	608a      	str	r2, [r1, #8]
 8003ca8:	689a      	ldr	r2, [r3, #8]
 8003caa:	6051      	str	r1, [r2, #4]
 8003cac:	6099      	str	r1, [r3, #8]
 8003cae:	6803      	ldr	r3, [r0, #0]
 8003cb0:	6108      	str	r0, [r1, #16]
 8003cb2:	3301      	adds	r3, #1
 8003cb4:	6003      	str	r3, [r0, #0]
 8003cb6:	4770      	bx	lr

08003cb8 <vListInsert>:
 8003cb8:	b530      	push	{r4, r5, lr}
 8003cba:	680c      	ldr	r4, [r1, #0]
 8003cbc:	1c63      	adds	r3, r4, #1
 8003cbe:	d10a      	bne.n	8003cd6 <vListInsert+0x1e>
 8003cc0:	6903      	ldr	r3, [r0, #16]
 8003cc2:	685a      	ldr	r2, [r3, #4]
 8003cc4:	604a      	str	r2, [r1, #4]
 8003cc6:	6091      	str	r1, [r2, #8]
 8003cc8:	608b      	str	r3, [r1, #8]
 8003cca:	6059      	str	r1, [r3, #4]
 8003ccc:	6803      	ldr	r3, [r0, #0]
 8003cce:	6108      	str	r0, [r1, #16]
 8003cd0:	3301      	adds	r3, #1
 8003cd2:	6003      	str	r3, [r0, #0]
 8003cd4:	bd30      	pop	{r4, r5, pc}
 8003cd6:	f100 0208 	add.w	r2, r0, #8
 8003cda:	4613      	mov	r3, r2
 8003cdc:	6852      	ldr	r2, [r2, #4]
 8003cde:	6815      	ldr	r5, [r2, #0]
 8003ce0:	42a5      	cmp	r5, r4
 8003ce2:	d9fa      	bls.n	8003cda <vListInsert+0x22>
 8003ce4:	e7ed      	b.n	8003cc2 <vListInsert+0xa>

08003ce6 <uxListRemove>:
 8003ce6:	6903      	ldr	r3, [r0, #16]
 8003ce8:	e9d0 1201 	ldrd	r1, r2, [r0, #4]
 8003cec:	608a      	str	r2, [r1, #8]
 8003cee:	6051      	str	r1, [r2, #4]
 8003cf0:	6859      	ldr	r1, [r3, #4]
 8003cf2:	4281      	cmp	r1, r0
 8003cf4:	bf08      	it	eq
 8003cf6:	605a      	streq	r2, [r3, #4]
 8003cf8:	2200      	movs	r2, #0
 8003cfa:	6102      	str	r2, [r0, #16]
 8003cfc:	681a      	ldr	r2, [r3, #0]
 8003cfe:	3a01      	subs	r2, #1
 8003d00:	601a      	str	r2, [r3, #0]
 8003d02:	6818      	ldr	r0, [r3, #0]
 8003d04:	4770      	bx	lr

08003d06 <prvIsQueueEmpty>:
 8003d06:	b510      	push	{r4, lr}
 8003d08:	4604      	mov	r4, r0
 8003d0a:	f001 fd9b 	bl	8005844 <vPortEnterCritical>
 8003d0e:	6ba4      	ldr	r4, [r4, #56]	; 0x38
 8003d10:	f001 fdb8 	bl	8005884 <vPortExitCritical>
 8003d14:	fab4 f084 	clz	r0, r4
 8003d18:	0940      	lsrs	r0, r0, #5
 8003d1a:	bd10      	pop	{r4, pc}

08003d1c <prvCopyDataToQueue>:
 8003d1c:	b5f8      	push	{r3, r4, r5, r6, r7, lr}
 8003d1e:	4615      	mov	r5, r2
 8003d20:	6c02      	ldr	r2, [r0, #64]	; 0x40
 8003d22:	4604      	mov	r4, r0
 8003d24:	6b86      	ldr	r6, [r0, #56]	; 0x38
 8003d26:	b952      	cbnz	r2, 8003d3e <prvCopyDataToQueue+0x22>
 8003d28:	6807      	ldr	r7, [r0, #0]
 8003d2a:	bb47      	cbnz	r7, 8003d7e <prvCopyDataToQueue+0x62>
 8003d2c:	6840      	ldr	r0, [r0, #4]
 8003d2e:	f001 faa1 	bl	8005274 <xTaskPriorityDisinherit>
 8003d32:	4605      	mov	r5, r0
 8003d34:	6067      	str	r7, [r4, #4]
 8003d36:	3601      	adds	r6, #1
 8003d38:	4628      	mov	r0, r5
 8003d3a:	63a6      	str	r6, [r4, #56]	; 0x38
 8003d3c:	bdf8      	pop	{r3, r4, r5, r6, r7, pc}
 8003d3e:	b965      	cbnz	r5, 8003d5a <prvCopyDataToQueue+0x3e>
 8003d40:	6880      	ldr	r0, [r0, #8]
 8003d42:	f001 ff9b 	bl	8005c7c <memcpy>
 8003d46:	68a3      	ldr	r3, [r4, #8]
 8003d48:	6c22      	ldr	r2, [r4, #64]	; 0x40
 8003d4a:	4413      	add	r3, r2
 8003d4c:	6862      	ldr	r2, [r4, #4]
 8003d4e:	60a3      	str	r3, [r4, #8]
 8003d50:	4293      	cmp	r3, r2
 8003d52:	d3f0      	bcc.n	8003d36 <prvCopyDataToQueue+0x1a>
 8003d54:	6823      	ldr	r3, [r4, #0]
 8003d56:	60a3      	str	r3, [r4, #8]
 8003d58:	e7ed      	b.n	8003d36 <prvCopyDataToQueue+0x1a>
 8003d5a:	68c0      	ldr	r0, [r0, #12]
 8003d5c:	f001 ff8e 	bl	8005c7c <memcpy>
 8003d60:	6c22      	ldr	r2, [r4, #64]	; 0x40
 8003d62:	68e3      	ldr	r3, [r4, #12]
 8003d64:	4251      	negs	r1, r2
 8003d66:	1a9b      	subs	r3, r3, r2
 8003d68:	6822      	ldr	r2, [r4, #0]
 8003d6a:	60e3      	str	r3, [r4, #12]
 8003d6c:	4293      	cmp	r3, r2
 8003d6e:	bf3e      	ittt	cc
 8003d70:	6863      	ldrcc	r3, [r4, #4]
 8003d72:	185b      	addcc	r3, r3, r1
 8003d74:	60e3      	strcc	r3, [r4, #12]
 8003d76:	2d02      	cmp	r5, #2
 8003d78:	d101      	bne.n	8003d7e <prvCopyDataToQueue+0x62>
 8003d7a:	b116      	cbz	r6, 8003d82 <prvCopyDataToQueue+0x66>
 8003d7c:	3e01      	subs	r6, #1
 8003d7e:	2500      	movs	r5, #0
 8003d80:	e7d9      	b.n	8003d36 <prvCopyDataToQueue+0x1a>
 8003d82:	4635      	mov	r5, r6
 8003d84:	e7d7      	b.n	8003d36 <prvCopyDataToQueue+0x1a>

08003d86 <prvCopyDataFromQueue>:
 8003d86:	4603      	mov	r3, r0
 8003d88:	6c1a      	ldr	r2, [r3, #64]	; 0x40
 8003d8a:	4608      	mov	r0, r1
 8003d8c:	b410      	push	{r4}
 8003d8e:	b162      	cbz	r2, 8003daa <prvCopyDataFromQueue+0x24>
 8003d90:	68dc      	ldr	r4, [r3, #12]
 8003d92:	6859      	ldr	r1, [r3, #4]
 8003d94:	4414      	add	r4, r2
 8003d96:	428c      	cmp	r4, r1
 8003d98:	bf28      	it	cs
 8003d9a:	6819      	ldrcs	r1, [r3, #0]
 8003d9c:	60dc      	str	r4, [r3, #12]
 8003d9e:	bf28      	it	cs
 8003da0:	60d9      	strcs	r1, [r3, #12]
 8003da2:	68d9      	ldr	r1, [r3, #12]
 8003da4:	bc10      	pop	{r4}
 8003da6:	f001 bf69 	b.w	8005c7c <memcpy>
 8003daa:	bc10      	pop	{r4}
 8003dac:	4770      	bx	lr

08003dae <prvUnlockQueue>:
 8003dae:	b570      	push	{r4, r5, r6, lr}
 8003db0:	4604      	mov	r4, r0
 8003db2:	f001 fd47 	bl	8005844 <vPortEnterCritical>
 8003db6:	f894 5045 	ldrb.w	r5, [r4, #69]	; 0x45
 8003dba:	f104 0624 	add.w	r6, r4, #36	; 0x24
 8003dbe:	b26d      	sxtb	r5, r5
 8003dc0:	2d00      	cmp	r5, #0
 8003dc2:	dc14      	bgt.n	8003dee <prvUnlockQueue+0x40>
 8003dc4:	23ff      	movs	r3, #255	; 0xff
 8003dc6:	f884 3045 	strb.w	r3, [r4, #69]	; 0x45
 8003dca:	f001 fd5b 	bl	8005884 <vPortExitCritical>
 8003dce:	f001 fd39 	bl	8005844 <vPortEnterCritical>
 8003dd2:	f894 5044 	ldrb.w	r5, [r4, #68]	; 0x44
 8003dd6:	f104 0610 	add.w	r6, r4, #16
 8003dda:	b26d      	sxtb	r5, r5
 8003ddc:	2d00      	cmp	r5, #0
 8003dde:	dc12      	bgt.n	8003e06 <prvUnlockQueue+0x58>
 8003de0:	23ff      	movs	r3, #255	; 0xff
 8003de2:	f884 3044 	strb.w	r3, [r4, #68]	; 0x44
 8003de6:	e8bd 4070 	ldmia.w	sp!, {r4, r5, r6, lr}
 8003dea:	f001 bd4b 	b.w	8005884 <vPortExitCritical>
 8003dee:	6a63      	ldr	r3, [r4, #36]	; 0x24
 8003df0:	2b00      	cmp	r3, #0
 8003df2:	d0e7      	beq.n	8003dc4 <prvUnlockQueue+0x16>
 8003df4:	4630      	mov	r0, r6
 8003df6:	f001 f917 	bl	8005028 <xTaskRemoveFromEventList>
 8003dfa:	b108      	cbz	r0, 8003e00 <prvUnlockQueue+0x52>
 8003dfc:	f001 f9de 	bl	80051bc <vTaskMissedYield>
 8003e00:	3d01      	subs	r5, #1
 8003e02:	b26d      	sxtb	r5, r5
 8003e04:	e7dc      	b.n	8003dc0 <prvUnlockQueue+0x12>
 8003e06:	6923      	ldr	r3, [r4, #16]
 8003e08:	2b00      	cmp	r3, #0
 8003e0a:	d0e9      	beq.n	8003de0 <prvUnlockQueue+0x32>
 8003e0c:	4630      	mov	r0, r6
 8003e0e:	f001 f90b 	bl	8005028 <xTaskRemoveFromEventList>
 8003e12:	b108      	cbz	r0, 8003e18 <prvUnlockQueue+0x6a>
 8003e14:	f001 f9d2 	bl	80051bc <vTaskMissedYield>
 8003e18:	3d01      	subs	r5, #1
 8003e1a:	b26d      	sxtb	r5, r5
 8003e1c:	e7de      	b.n	8003ddc <prvUnlockQueue+0x2e>

08003e1e <xQueueGenericReset>:
 8003e1e:	b538      	push	{r3, r4, r5, lr}
 8003e20:	460d      	mov	r5, r1
 8003e22:	4604      	mov	r4, r0
 8003e24:	b940      	cbnz	r0, 8003e38 <xQueueGenericReset+0x1a>
 8003e26:	f04f 0350 	mov.w	r3, #80	; 0x50
 8003e2a:	f383 8811 	msr	BASEPRI, r3
 8003e2e:	f3bf 8f6f 	isb	sy
 8003e32:	f3bf 8f4f 	dsb	sy
 8003e36:	e7fe      	b.n	8003e36 <xQueueGenericReset+0x18>
 8003e38:	f001 fd04 	bl	8005844 <vPortEnterCritical>
 8003e3c:	e9d4 310f 	ldrd	r3, r1, [r4, #60]	; 0x3c
 8003e40:	434b      	muls	r3, r1
 8003e42:	6822      	ldr	r2, [r4, #0]
 8003e44:	18d0      	adds	r0, r2, r3
 8003e46:	1a5b      	subs	r3, r3, r1
 8003e48:	4413      	add	r3, r2
 8003e4a:	6060      	str	r0, [r4, #4]
 8003e4c:	60e3      	str	r3, [r4, #12]
 8003e4e:	2000      	movs	r0, #0
 8003e50:	23ff      	movs	r3, #255	; 0xff
 8003e52:	63a0      	str	r0, [r4, #56]	; 0x38
 8003e54:	60a2      	str	r2, [r4, #8]
 8003e56:	f884 3044 	strb.w	r3, [r4, #68]	; 0x44
 8003e5a:	f884 3045 	strb.w	r3, [r4, #69]	; 0x45
 8003e5e:	b9a5      	cbnz	r5, 8003e8a <xQueueGenericReset+0x6c>
 8003e60:	6923      	ldr	r3, [r4, #16]
 8003e62:	b173      	cbz	r3, 8003e82 <xQueueGenericReset+0x64>
 8003e64:	f104 0010 	add.w	r0, r4, #16
 8003e68:	f001 f8de 	bl	8005028 <xTaskRemoveFromEventList>
 8003e6c:	b148      	cbz	r0, 8003e82 <xQueueGenericReset+0x64>
 8003e6e:	f04f 23e0 	mov.w	r3, #3758153728	; 0xe000e000
 8003e72:	f04f 5280 	mov.w	r2, #268435456	; 0x10000000
 8003e76:	f8c3 2d04 	str.w	r2, [r3, #3332]	; 0xd04
 8003e7a:	f3bf 8f4f 	dsb	sy
 8003e7e:	f3bf 8f6f 	isb	sy
 8003e82:	f001 fcff 	bl	8005884 <vPortExitCritical>
 8003e86:	2001      	movs	r0, #1
 8003e88:	bd38      	pop	{r3, r4, r5, pc}
 8003e8a:	f104 0010 	add.w	r0, r4, #16
 8003e8e:	f7ff fef9 	bl	8003c84 <vListInitialise>
 8003e92:	f104 0024 	add.w	r0, r4, #36	; 0x24
 8003e96:	f7ff fef5 	bl	8003c84 <vListInitialise>
 8003e9a:	e7f2      	b.n	8003e82 <xQueueGenericReset+0x64>

08003e9c <xQueueGenericCreateStatic>:
 8003e9c:	b537      	push	{r0, r1, r2, r4, r5, lr}
 8003e9e:	460d      	mov	r5, r1
 8003ea0:	461c      	mov	r4, r3
 8003ea2:	b940      	cbnz	r0, 8003eb6 <xQueueGenericCreateStatic+0x1a>
 8003ea4:	f04f 0350 	mov.w	r3, #80	; 0x50
 8003ea8:	f383 8811 	msr	BASEPRI, r3
 8003eac:	f3bf 8f6f 	isb	sy
 8003eb0:	f3bf 8f4f 	dsb	sy
 8003eb4:	e7fe      	b.n	8003eb4 <xQueueGenericCreateStatic+0x18>
 8003eb6:	b943      	cbnz	r3, 8003eca <xQueueGenericCreateStatic+0x2e>
 8003eb8:	f04f 0350 	mov.w	r3, #80	; 0x50
 8003ebc:	f383 8811 	msr	BASEPRI, r3
 8003ec0:	f3bf 8f6f 	isb	sy
 8003ec4:	f3bf 8f4f 	dsb	sy
 8003ec8:	e7fe      	b.n	8003ec8 <xQueueGenericCreateStatic+0x2c>
 8003eca:	b14a      	cbz	r2, 8003ee0 <xQueueGenericCreateStatic+0x44>
 8003ecc:	b991      	cbnz	r1, 8003ef4 <xQueueGenericCreateStatic+0x58>
 8003ece:	f04f 0350 	mov.w	r3, #80	; 0x50
 8003ed2:	f383 8811 	msr	BASEPRI, r3
 8003ed6:	f3bf 8f6f 	isb	sy
 8003eda:	f3bf 8f4f 	dsb	sy
 8003ede:	e7fe      	b.n	8003ede <xQueueGenericCreateStatic+0x42>
 8003ee0:	b141      	cbz	r1, 8003ef4 <xQueueGenericCreateStatic+0x58>
 8003ee2:	f04f 0350 	mov.w	r3, #80	; 0x50
 8003ee6:	f383 8811 	msr	BASEPRI, r3
 8003eea:	f3bf 8f6f 	isb	sy
 8003eee:	f3bf 8f4f 	dsb	sy
 8003ef2:	e7fe      	b.n	8003ef2 <xQueueGenericCreateStatic+0x56>
 8003ef4:	2350      	movs	r3, #80	; 0x50
 8003ef6:	9301      	str	r3, [sp, #4]
 8003ef8:	9b01      	ldr	r3, [sp, #4]
 8003efa:	2b50      	cmp	r3, #80	; 0x50
 8003efc:	d008      	beq.n	8003f10 <xQueueGenericCreateStatic+0x74>
 8003efe:	f04f 0350 	mov.w	r3, #80	; 0x50
 8003f02:	f383 8811 	msr	BASEPRI, r3
 8003f06:	f3bf 8f6f 	isb	sy
 8003f0a:	f3bf 8f4f 	dsb	sy
 8003f0e:	e7fe      	b.n	8003f0e <xQueueGenericCreateStatic+0x72>
 8003f10:	2101      	movs	r1, #1
 8003f12:	2d00      	cmp	r5, #0
 8003f14:	bf08      	it	eq
 8003f16:	4622      	moveq	r2, r4
 8003f18:	e9c4 050f 	strd	r0, r5, [r4, #60]	; 0x3c
 8003f1c:	f884 1046 	strb.w	r1, [r4, #70]	; 0x46
 8003f20:	4620      	mov	r0, r4
 8003f22:	6022      	str	r2, [r4, #0]
 8003f24:	f7ff ff7b 	bl	8003e1e <xQueueGenericReset>
 8003f28:	4620      	mov	r0, r4
 8003f2a:	f89d 3018 	ldrb.w	r3, [sp, #24]
 8003f2e:	f884 304c 	strb.w	r3, [r4, #76]	; 0x4c
 8003f32:	b003      	add	sp, #12
 8003f34:	bd30      	pop	{r4, r5, pc}

08003f36 <xQueueGenericCreate>:
 8003f36:	b5f8      	push	{r3, r4, r5, r6, r7, lr}
 8003f38:	460d      	mov	r5, r1
 8003f3a:	4617      	mov	r7, r2
 8003f3c:	4606      	mov	r6, r0
 8003f3e:	b940      	cbnz	r0, 8003f52 <xQueueGenericCreate+0x1c>
 8003f40:	f04f 0350 	mov.w	r3, #80	; 0x50
 8003f44:	f383 8811 	msr	BASEPRI, r3
 8003f48:	f3bf 8f6f 	isb	sy
 8003f4c:	f3bf 8f4f 	dsb	sy
 8003f50:	e7fe      	b.n	8003f50 <xQueueGenericCreate+0x1a>
 8003f52:	4348      	muls	r0, r1
 8003f54:	3050      	adds	r0, #80	; 0x50
 8003f56:	f001 fda3 	bl	8005aa0 <pvPortMalloc>
 8003f5a:	4604      	mov	r4, r0
 8003f5c:	b170      	cbz	r0, 8003f7c <xQueueGenericCreate+0x46>
 8003f5e:	2300      	movs	r3, #0
 8003f60:	f880 3046 	strb.w	r3, [r0, #70]	; 0x46
 8003f64:	b165      	cbz	r5, 8003f80 <xQueueGenericCreate+0x4a>
 8003f66:	f100 0350 	add.w	r3, r0, #80	; 0x50
 8003f6a:	2101      	movs	r1, #1
 8003f6c:	4620      	mov	r0, r4
 8003f6e:	e9c4 650f 	strd	r6, r5, [r4, #60]	; 0x3c
 8003f72:	6023      	str	r3, [r4, #0]
 8003f74:	f7ff ff53 	bl	8003e1e <xQueueGenericReset>
 8003f78:	f884 704c 	strb.w	r7, [r4, #76]	; 0x4c
 8003f7c:	4620      	mov	r0, r4
 8003f7e:	bdf8      	pop	{r3, r4, r5, r6, r7, pc}
 8003f80:	4603      	mov	r3, r0
 8003f82:	e7f2      	b.n	8003f6a <xQueueGenericCreate+0x34>

08003f84 <xQueueCreateCountingSemaphoreStatic>:
 8003f84:	b513      	push	{r0, r1, r4, lr}
 8003f86:	4613      	mov	r3, r2
 8003f88:	460c      	mov	r4, r1
 8003f8a:	b940      	cbnz	r0, 8003f9e <xQueueCreateCountingSemaphoreStatic+0x1a>
 8003f8c:	f04f 0350 	mov.w	r3, #80	; 0x50
 8003f90:	f383 8811 	msr	BASEPRI, r3
 8003f94:	f3bf 8f6f 	isb	sy
 8003f98:	f3bf 8f4f 	dsb	sy
 8003f9c:	e7fe      	b.n	8003f9c <xQueueCreateCountingSemaphoreStatic+0x18>
 8003f9e:	4288      	cmp	r0, r1
 8003fa0:	d208      	bcs.n	8003fb4 <xQueueCreateCountingSemaphoreStatic+0x30>
 8003fa2:	f04f 0350 	mov.w	r3, #80	; 0x50
 8003fa6:	f383 8811 	msr	BASEPRI, r3
 8003faa:	f3bf 8f6f 	isb	sy
 8003fae:	f3bf 8f4f 	dsb	sy
 8003fb2:	e7fe      	b.n	8003fb2 <xQueueCreateCountingSemaphoreStatic+0x2e>
 8003fb4:	2202      	movs	r2, #2
 8003fb6:	9200      	str	r2, [sp, #0]
 8003fb8:	2200      	movs	r2, #0
 8003fba:	4611      	mov	r1, r2
 8003fbc:	f7ff ff6e 	bl	8003e9c <xQueueGenericCreateStatic>
 8003fc0:	b100      	cbz	r0, 8003fc4 <xQueueCreateCountingSemaphoreStatic+0x40>
 8003fc2:	6384      	str	r4, [r0, #56]	; 0x38
 8003fc4:	b002      	add	sp, #8
 8003fc6:	bd10      	pop	{r4, pc}

08003fc8 <xQueueCreateCountingSemaphore>:
 8003fc8:	b510      	push	{r4, lr}
 8003fca:	460c      	mov	r4, r1
 8003fcc:	b940      	cbnz	r0, 8003fe0 <xQueueCreateCountingSemaphore+0x18>
 8003fce:	f04f 0350 	mov.w	r3, #80	; 0x50
 8003fd2:	f383 8811 	msr	BASEPRI, r3
 8003fd6:	f3bf 8f6f 	isb	sy
 8003fda:	f3bf 8f4f 	dsb	sy
 8003fde:	e7fe      	b.n	8003fde <xQueueCreateCountingSemaphore+0x16>
 8003fe0:	4288      	cmp	r0, r1
 8003fe2:	d208      	bcs.n	8003ff6 <xQueueCreateCountingSemaphore+0x2e>
 8003fe4:	f04f 0350 	mov.w	r3, #80	; 0x50
 8003fe8:	f383 8811 	msr	BASEPRI, r3
 8003fec:	f3bf 8f6f 	isb	sy
 8003ff0:	f3bf 8f4f 	dsb	sy
 8003ff4:	e7fe      	b.n	8003ff4 <xQueueCreateCountingSemaphore+0x2c>
 8003ff6:	2202      	movs	r2, #2
 8003ff8:	2100      	movs	r1, #0
 8003ffa:	f7ff ff9c 	bl	8003f36 <xQueueGenericCreate>
 8003ffe:	b100      	cbz	r0, 8004002 <xQueueCreateCountingSemaphore+0x3a>
 8004000:	6384      	str	r4, [r0, #56]	; 0x38
 8004002:	bd10      	pop	{r4, pc}

08004004 <xQueueGenericSend>:
 8004004:	e92d 43f0 	stmdb	sp!, {r4, r5, r6, r7, r8, r9, lr}
 8004008:	b085      	sub	sp, #20
 800400a:	4688      	mov	r8, r1
 800400c:	461f      	mov	r7, r3
 800400e:	4604      	mov	r4, r0
 8004010:	9201      	str	r2, [sp, #4]
 8004012:	b940      	cbnz	r0, 8004026 <xQueueGenericSend+0x22>
 8004014:	f04f 0350 	mov.w	r3, #80	; 0x50
 8004018:	f383 8811 	msr	BASEPRI, r3
 800401c:	f3bf 8f6f 	isb	sy
 8004020:	f3bf 8f4f 	dsb	sy
 8004024:	e7fe      	b.n	8004024 <xQueueGenericSend+0x20>
 8004026:	b951      	cbnz	r1, 800403e <xQueueGenericSend+0x3a>
 8004028:	6c03      	ldr	r3, [r0, #64]	; 0x40
 800402a:	b143      	cbz	r3, 800403e <xQueueGenericSend+0x3a>
 800402c:	f04f 0350 	mov.w	r3, #80	; 0x50
 8004030:	f383 8811 	msr	BASEPRI, r3
 8004034:	f3bf 8f6f 	isb	sy
 8004038:	f3bf 8f4f 	dsb	sy
 800403c:	e7fe      	b.n	800403c <xQueueGenericSend+0x38>
 800403e:	2f02      	cmp	r7, #2
 8004040:	d10b      	bne.n	800405a <xQueueGenericSend+0x56>
 8004042:	6be3      	ldr	r3, [r4, #60]	; 0x3c
 8004044:	2b01      	cmp	r3, #1
 8004046:	d008      	beq.n	800405a <xQueueGenericSend+0x56>
 8004048:	f04f 0350 	mov.w	r3, #80	; 0x50
 800404c:	f383 8811 	msr	BASEPRI, r3
 8004050:	f3bf 8f6f 	isb	sy
 8004054:	f3bf 8f4f 	dsb	sy
 8004058:	e7fe      	b.n	8004058 <xQueueGenericSend+0x54>
 800405a:	f001 f8bb 	bl	80051d4 <xTaskGetSchedulerState>
 800405e:	4606      	mov	r6, r0
 8004060:	b950      	cbnz	r0, 8004078 <xQueueGenericSend+0x74>
 8004062:	9b01      	ldr	r3, [sp, #4]
 8004064:	b14b      	cbz	r3, 800407a <xQueueGenericSend+0x76>
 8004066:	f04f 0350 	mov.w	r3, #80	; 0x50
 800406a:	f383 8811 	msr	BASEPRI, r3
 800406e:	f3bf 8f6f 	isb	sy
 8004072:	f3bf 8f4f 	dsb	sy
 8004076:	e7fe      	b.n	8004076 <xQueueGenericSend+0x72>
 8004078:	2600      	movs	r6, #0
 800407a:	f04f 0900 	mov.w	r9, #0
 800407e:	e037      	b.n	80040f0 <xQueueGenericSend+0xec>
 8004080:	9d01      	ldr	r5, [sp, #4]
 8004082:	b91d      	cbnz	r5, 800408c <xQueueGenericSend+0x88>
 8004084:	f001 fbfe 	bl	8005884 <vPortExitCritical>
 8004088:	2000      	movs	r0, #0
 800408a:	e052      	b.n	8004132 <xQueueGenericSend+0x12e>
 800408c:	b916      	cbnz	r6, 8004094 <xQueueGenericSend+0x90>
 800408e:	a802      	add	r0, sp, #8
 8004090:	f001 f84c 	bl	800512c <vTaskInternalSetTimeOutState>
 8004094:	f001 fbf6 	bl	8005884 <vPortExitCritical>
 8004098:	f000 fdc4 	bl	8004c24 <vTaskSuspendAll>
 800409c:	f001 fbd2 	bl	8005844 <vPortEnterCritical>
 80040a0:	f894 3044 	ldrb.w	r3, [r4, #68]	; 0x44
 80040a4:	2bff      	cmp	r3, #255	; 0xff
 80040a6:	bf08      	it	eq
 80040a8:	f884 9044 	strbeq.w	r9, [r4, #68]	; 0x44
 80040ac:	f894 3045 	ldrb.w	r3, [r4, #69]	; 0x45
 80040b0:	2bff      	cmp	r3, #255	; 0xff
 80040b2:	bf08      	it	eq
 80040b4:	f884 9045 	strbeq.w	r9, [r4, #69]	; 0x45
 80040b8:	f001 fbe4 	bl	8005884 <vPortExitCritical>
 80040bc:	a901      	add	r1, sp, #4
 80040be:	a802      	add	r0, sp, #8
 80040c0:	f001 f840 	bl	8005144 <xTaskCheckForTimeOut>
 80040c4:	2800      	cmp	r0, #0
 80040c6:	d14a      	bne.n	800415e <xQueueGenericSend+0x15a>
 80040c8:	f001 fbbc 	bl	8005844 <vPortEnterCritical>
 80040cc:	6ba2      	ldr	r2, [r4, #56]	; 0x38
 80040ce:	6be3      	ldr	r3, [r4, #60]	; 0x3c
 80040d0:	429a      	cmp	r2, r3
 80040d2:	d131      	bne.n	8004138 <xQueueGenericSend+0x134>
 80040d4:	f001 fbd6 	bl	8005884 <vPortExitCritical>
 80040d8:	9901      	ldr	r1, [sp, #4]
 80040da:	f104 0010 	add.w	r0, r4, #16
 80040de:	f000 ff69 	bl	8004fb4 <vTaskPlaceOnEventList>
 80040e2:	4620      	mov	r0, r4
 80040e4:	f7ff fe63 	bl	8003dae <prvUnlockQueue>
 80040e8:	f000 fe42 	bl	8004d70 <xTaskResumeAll>
 80040ec:	b360      	cbz	r0, 8004148 <xQueueGenericSend+0x144>
 80040ee:	2601      	movs	r6, #1
 80040f0:	f001 fba8 	bl	8005844 <vPortEnterCritical>
 80040f4:	6ba2      	ldr	r2, [r4, #56]	; 0x38
 80040f6:	6be3      	ldr	r3, [r4, #60]	; 0x3c
 80040f8:	429a      	cmp	r2, r3
 80040fa:	d301      	bcc.n	8004100 <xQueueGenericSend+0xfc>
 80040fc:	2f02      	cmp	r7, #2
 80040fe:	d1bf      	bne.n	8004080 <xQueueGenericSend+0x7c>
 8004100:	463a      	mov	r2, r7
 8004102:	4641      	mov	r1, r8
 8004104:	4620      	mov	r0, r4
 8004106:	f7ff fe09 	bl	8003d1c <prvCopyDataToQueue>
 800410a:	6a63      	ldr	r3, [r4, #36]	; 0x24
 800410c:	b11b      	cbz	r3, 8004116 <xQueueGenericSend+0x112>
 800410e:	f104 0024 	add.w	r0, r4, #36	; 0x24
 8004112:	f000 ff89 	bl	8005028 <xTaskRemoveFromEventList>
 8004116:	b148      	cbz	r0, 800412c <xQueueGenericSend+0x128>
 8004118:	f04f 23e0 	mov.w	r3, #3758153728	; 0xe000e000
 800411c:	f04f 5280 	mov.w	r2, #268435456	; 0x10000000
 8004120:	f8c3 2d04 	str.w	r2, [r3, #3332]	; 0xd04
 8004124:	f3bf 8f4f 	dsb	sy
 8004128:	f3bf 8f6f 	isb	sy
 800412c:	f001 fbaa 	bl	8005884 <vPortExitCritical>
 8004130:	2001      	movs	r0, #1
 8004132:	b005      	add	sp, #20
 8004134:	e8bd 83f0 	ldmia.w	sp!, {r4, r5, r6, r7, r8, r9, pc}
 8004138:	f001 fba4 	bl	8005884 <vPortExitCritical>
 800413c:	4620      	mov	r0, r4
 800413e:	f7ff fe36 	bl	8003dae <prvUnlockQueue>
 8004142:	f000 fe15 	bl	8004d70 <xTaskResumeAll>
 8004146:	e7d2      	b.n	80040ee <xQueueGenericSend+0xea>
 8004148:	f04f 23e0 	mov.w	r3, #3758153728	; 0xe000e000
 800414c:	f04f 5280 	mov.w	r2, #268435456	; 0x10000000
 8004150:	f8c3 2d04 	str.w	r2, [r3, #3332]	; 0xd04
 8004154:	f3bf 8f4f 	dsb	sy
 8004158:	f3bf 8f6f 	isb	sy
 800415c:	e7c7      	b.n	80040ee <xQueueGenericSend+0xea>
 800415e:	4620      	mov	r0, r4
 8004160:	f7ff fe25 	bl	8003dae <prvUnlockQueue>
 8004164:	f000 fe04 	bl	8004d70 <xTaskResumeAll>
 8004168:	e78e      	b.n	8004088 <xQueueGenericSend+0x84>

0800416a <xQueueCreateMutexStatic>:
 800416a:	2200      	movs	r2, #0
 800416c:	b513      	push	{r0, r1, r4, lr}
 800416e:	460b      	mov	r3, r1
 8004170:	9000      	str	r0, [sp, #0]
 8004172:	4611      	mov	r1, r2
 8004174:	2001      	movs	r0, #1
 8004176:	f7ff fe91 	bl	8003e9c <xQueueGenericCreateStatic>
 800417a:	4604      	mov	r4, r0
 800417c:	b138      	cbz	r0, 800418e <xQueueCreateMutexStatic+0x24>
 800417e:	2300      	movs	r3, #0
 8004180:	461a      	mov	r2, r3
 8004182:	4619      	mov	r1, r3
 8004184:	e9c0 3300 	strd	r3, r3, [r0]
 8004188:	60c3      	str	r3, [r0, #12]
 800418a:	f7ff ff3b 	bl	8004004 <xQueueGenericSend>
 800418e:	4620      	mov	r0, r4
 8004190:	b002      	add	sp, #8
 8004192:	bd10      	pop	{r4, pc}

08004194 <xQueueGiveMutexRecursive>:
 8004194:	b538      	push	{r3, r4, r5, lr}
 8004196:	4604      	mov	r4, r0
 8004198:	b940      	cbnz	r0, 80041ac <xQueueGiveMutexRecursive+0x18>
 800419a:	f04f 0350 	mov.w	r3, #80	; 0x50
 800419e:	f383 8811 	msr	BASEPRI, r3
 80041a2:	f3bf 8f6f 	isb	sy
 80041a6:	f3bf 8f4f 	dsb	sy
 80041aa:	e7fe      	b.n	80041aa <xQueueGiveMutexRecursive+0x16>
 80041ac:	6845      	ldr	r5, [r0, #4]
 80041ae:	f001 f80b 	bl	80051c8 <xTaskGetCurrentTaskHandle>
 80041b2:	4285      	cmp	r5, r0
 80041b4:	d10a      	bne.n	80041cc <xQueueGiveMutexRecursive+0x38>
 80041b6:	68e3      	ldr	r3, [r4, #12]
 80041b8:	3b01      	subs	r3, #1
 80041ba:	60e3      	str	r3, [r4, #12]
 80041bc:	b923      	cbnz	r3, 80041c8 <xQueueGiveMutexRecursive+0x34>
 80041be:	461a      	mov	r2, r3
 80041c0:	4619      	mov	r1, r3
 80041c2:	4620      	mov	r0, r4
 80041c4:	f7ff ff1e 	bl	8004004 <xQueueGenericSend>
 80041c8:	2001      	movs	r0, #1
 80041ca:	e000      	b.n	80041ce <xQueueGiveMutexRecursive+0x3a>
 80041cc:	2000      	movs	r0, #0
 80041ce:	bd38      	pop	{r3, r4, r5, pc}

080041d0 <xQueueCreateMutex>:
 80041d0:	b570      	push	{r4, r5, r6, lr}
 80041d2:	4606      	mov	r6, r0
 80041d4:	2050      	movs	r0, #80	; 0x50
 80041d6:	f001 fc63 	bl	8005aa0 <pvPortMalloc>
 80041da:	4604      	mov	r4, r0
 80041dc:	b198      	cbz	r0, 8004206 <xQueueCreateMutex+0x36>
 80041de:	2500      	movs	r5, #0
 80041e0:	2101      	movs	r1, #1
 80041e2:	f880 5046 	strb.w	r5, [r0, #70]	; 0x46
 80041e6:	e9c0 150f 	strd	r1, r5, [r0, #60]	; 0x3c
 80041ea:	6000      	str	r0, [r0, #0]
 80041ec:	f7ff fe17 	bl	8003e1e <xQueueGenericReset>
 80041f0:	462b      	mov	r3, r5
 80041f2:	462a      	mov	r2, r5
 80041f4:	4629      	mov	r1, r5
 80041f6:	4620      	mov	r0, r4
 80041f8:	e9c4 5500 	strd	r5, r5, [r4]
 80041fc:	f884 604c 	strb.w	r6, [r4, #76]	; 0x4c
 8004200:	60e5      	str	r5, [r4, #12]
 8004202:	f7ff feff 	bl	8004004 <xQueueGenericSend>
 8004206:	4620      	mov	r0, r4
 8004208:	bd70      	pop	{r4, r5, r6, pc}

0800420a <xQueueGenericSendFromISR>:
 800420a:	e92d 43f8 	stmdb	sp!, {r3, r4, r5, r6, r7, r8, r9, lr}
 800420e:	4689      	mov	r9, r1
 8004210:	4690      	mov	r8, r2
 8004212:	461f      	mov	r7, r3
 8004214:	4604      	mov	r4, r0
 8004216:	b940      	cbnz	r0, 800422a <xQueueGenericSendFromISR+0x20>
 8004218:	f04f 0350 	mov.w	r3, #80	; 0x50
 800421c:	f383 8811 	msr	BASEPRI, r3
 8004220:	f3bf 8f6f 	isb	sy
 8004224:	f3bf 8f4f 	dsb	sy
 8004228:	e7fe      	b.n	8004228 <xQueueGenericSendFromISR+0x1e>
 800422a:	b951      	cbnz	r1, 8004242 <xQueueGenericSendFromISR+0x38>
 800422c:	6c03      	ldr	r3, [r0, #64]	; 0x40
 800422e:	b143      	cbz	r3, 8004242 <xQueueGenericSendFromISR+0x38>
 8004230:	f04f 0350 	mov.w	r3, #80	; 0x50
 8004234:	f383 8811 	msr	BASEPRI, r3
 8004238:	f3bf 8f6f 	isb	sy
 800423c:	f3bf 8f4f 	dsb	sy
 8004240:	e7fe      	b.n	8004240 <xQueueGenericSendFromISR+0x36>
 8004242:	2f02      	cmp	r7, #2
 8004244:	d10b      	bne.n	800425e <xQueueGenericSendFromISR+0x54>
 8004246:	6be3      	ldr	r3, [r4, #60]	; 0x3c
 8004248:	2b01      	cmp	r3, #1
 800424a:	d008      	beq.n	800425e <xQueueGenericSendFromISR+0x54>
 800424c:	f04f 0350 	mov.w	r3, #80	; 0x50
 8004250:	f383 8811 	msr	BASEPRI, r3
 8004254:	f3bf 8f6f 	isb	sy
 8004258:	f3bf 8f4f 	dsb	sy
 800425c:	e7fe      	b.n	800425c <xQueueGenericSendFromISR+0x52>
 800425e:	f001 fbcd 	bl	80059fc <vPortValidateInterruptPriority>
 8004262:	f3ef 8611 	mrs	r6, BASEPRI
 8004266:	f04f 0350 	mov.w	r3, #80	; 0x50
 800426a:	f383 8811 	msr	BASEPRI, r3
 800426e:	f3bf 8f6f 	isb	sy
 8004272:	f3bf 8f4f 	dsb	sy
 8004276:	6ba2      	ldr	r2, [r4, #56]	; 0x38
 8004278:	6be3      	ldr	r3, [r4, #60]	; 0x3c
 800427a:	429a      	cmp	r2, r3
 800427c:	d301      	bcc.n	8004282 <xQueueGenericSendFromISR+0x78>
 800427e:	2f02      	cmp	r7, #2
 8004280:	d122      	bne.n	80042c8 <xQueueGenericSendFromISR+0xbe>
 8004282:	f894 5045 	ldrb.w	r5, [r4, #69]	; 0x45
 8004286:	463a      	mov	r2, r7
 8004288:	4649      	mov	r1, r9
 800428a:	4620      	mov	r0, r4
 800428c:	b26d      	sxtb	r5, r5
 800428e:	f7ff fd45 	bl	8003d1c <prvCopyDataToQueue>
 8004292:	1c6b      	adds	r3, r5, #1
 8004294:	d113      	bne.n	80042be <xQueueGenericSendFromISR+0xb4>
 8004296:	6a63      	ldr	r3, [r4, #36]	; 0x24
 8004298:	b90b      	cbnz	r3, 800429e <xQueueGenericSendFromISR+0x94>
 800429a:	2001      	movs	r0, #1
 800429c:	e00b      	b.n	80042b6 <xQueueGenericSendFromISR+0xac>
 800429e:	f104 0024 	add.w	r0, r4, #36	; 0x24
 80042a2:	f000 fec1 	bl	8005028 <xTaskRemoveFromEventList>
 80042a6:	2800      	cmp	r0, #0
 80042a8:	d0f7      	beq.n	800429a <xQueueGenericSendFromISR+0x90>
 80042aa:	f1b8 0f00 	cmp.w	r8, #0
 80042ae:	d0f4      	beq.n	800429a <xQueueGenericSendFromISR+0x90>
 80042b0:	2001      	movs	r0, #1
 80042b2:	f8c8 0000 	str.w	r0, [r8]
 80042b6:	f386 8811 	msr	BASEPRI, r6
 80042ba:	e8bd 83f8 	ldmia.w	sp!, {r3, r4, r5, r6, r7, r8, r9, pc}
 80042be:	3501      	adds	r5, #1
 80042c0:	b26d      	sxtb	r5, r5
 80042c2:	f884 5045 	strb.w	r5, [r4, #69]	; 0x45
 80042c6:	e7e8      	b.n	800429a <xQueueGenericSendFromISR+0x90>
 80042c8:	2000      	movs	r0, #0
 80042ca:	e7f4      	b.n	80042b6 <xQueueGenericSendFromISR+0xac>

080042cc <xQueueGiveFromISR>:
 80042cc:	b570      	push	{r4, r5, r6, lr}
 80042ce:	460d      	mov	r5, r1
 80042d0:	4604      	mov	r4, r0
 80042d2:	b940      	cbnz	r0, 80042e6 <xQueueGiveFromISR+0x1a>
 80042d4:	f04f 0350 	mov.w	r3, #80	; 0x50
 80042d8:	f383 8811 	msr	BASEPRI, r3
 80042dc:	f3bf 8f6f 	isb	sy
 80042e0:	f3bf 8f4f 	dsb	sy
 80042e4:	e7fe      	b.n	80042e4 <xQueueGiveFromISR+0x18>
 80042e6:	6c03      	ldr	r3, [r0, #64]	; 0x40
 80042e8:	b143      	cbz	r3, 80042fc <xQueueGiveFromISR+0x30>
 80042ea:	f04f 0350 	mov.w	r3, #80	; 0x50
 80042ee:	f383 8811 	msr	BASEPRI, r3
 80042f2:	f3bf 8f6f 	isb	sy
 80042f6:	f3bf 8f4f 	dsb	sy
 80042fa:	e7fe      	b.n	80042fa <xQueueGiveFromISR+0x2e>
 80042fc:	6803      	ldr	r3, [r0, #0]
 80042fe:	b953      	cbnz	r3, 8004316 <xQueueGiveFromISR+0x4a>
 8004300:	6843      	ldr	r3, [r0, #4]
 8004302:	b143      	cbz	r3, 8004316 <xQueueGiveFromISR+0x4a>
 8004304:	f04f 0350 	mov.w	r3, #80	; 0x50
 8004308:	f383 8811 	msr	BASEPRI, r3
 800430c:	f3bf 8f6f 	isb	sy
 8004310:	f3bf 8f4f 	dsb	sy
 8004314:	e7fe      	b.n	8004314 <xQueueGiveFromISR+0x48>
 8004316:	f001 fb71 	bl	80059fc <vPortValidateInterruptPriority>
 800431a:	f3ef 8611 	mrs	r6, BASEPRI
 800431e:	f04f 0350 	mov.w	r3, #80	; 0x50
 8004322:	f383 8811 	msr	BASEPRI, r3
 8004326:	f3bf 8f6f 	isb	sy
 800432a:	f3bf 8f4f 	dsb	sy
 800432e:	6ba2      	ldr	r2, [r4, #56]	; 0x38
 8004330:	6be3      	ldr	r3, [r4, #60]	; 0x3c
 8004332:	4293      	cmp	r3, r2
 8004334:	d91c      	bls.n	8004370 <xQueueGiveFromISR+0xa4>
 8004336:	f894 1045 	ldrb.w	r1, [r4, #69]	; 0x45
 800433a:	3201      	adds	r2, #1
 800433c:	29ff      	cmp	r1, #255	; 0xff
 800433e:	b24b      	sxtb	r3, r1
 8004340:	63a2      	str	r2, [r4, #56]	; 0x38
 8004342:	d110      	bne.n	8004366 <xQueueGiveFromISR+0x9a>
 8004344:	6a63      	ldr	r3, [r4, #36]	; 0x24
 8004346:	b90b      	cbnz	r3, 800434c <xQueueGiveFromISR+0x80>
 8004348:	2001      	movs	r0, #1
 800434a:	e009      	b.n	8004360 <xQueueGiveFromISR+0x94>
 800434c:	f104 0024 	add.w	r0, r4, #36	; 0x24
 8004350:	f000 fe6a 	bl	8005028 <xTaskRemoveFromEventList>
 8004354:	2800      	cmp	r0, #0
 8004356:	d0f7      	beq.n	8004348 <xQueueGiveFromISR+0x7c>
 8004358:	2d00      	cmp	r5, #0
 800435a:	d0f5      	beq.n	8004348 <xQueueGiveFromISR+0x7c>
 800435c:	2001      	movs	r0, #1
 800435e:	6028      	str	r0, [r5, #0]
 8004360:	f386 8811 	msr	BASEPRI, r6
 8004364:	bd70      	pop	{r4, r5, r6, pc}
 8004366:	3301      	adds	r3, #1
 8004368:	b25b      	sxtb	r3, r3
 800436a:	f884 3045 	strb.w	r3, [r4, #69]	; 0x45
 800436e:	e7eb      	b.n	8004348 <xQueueGiveFromISR+0x7c>
 8004370:	2000      	movs	r0, #0
 8004372:	e7f5      	b.n	8004360 <xQueueGiveFromISR+0x94>

08004374 <xQueueReceive>:
 8004374:	e92d 41ff 	stmdb	sp!, {r0, r1, r2, r3, r4, r5, r6, r7, r8, lr}
 8004378:	460f      	mov	r7, r1
 800437a:	4604      	mov	r4, r0
 800437c:	9201      	str	r2, [sp, #4]
 800437e:	b940      	cbnz	r0, 8004392 <xQueueReceive+0x1e>
 8004380:	f04f 0350 	mov.w	r3, #80	; 0x50
 8004384:	f383 8811 	msr	BASEPRI, r3
 8004388:	f3bf 8f6f 	isb	sy
 800438c:	f3bf 8f4f 	dsb	sy
 8004390:	e7fe      	b.n	8004390 <xQueueReceive+0x1c>
 8004392:	b951      	cbnz	r1, 80043aa <xQueueReceive+0x36>
 8004394:	6c03      	ldr	r3, [r0, #64]	; 0x40
 8004396:	b143      	cbz	r3, 80043aa <xQueueReceive+0x36>
 8004398:	f04f 0350 	mov.w	r3, #80	; 0x50
 800439c:	f383 8811 	msr	BASEPRI, r3
 80043a0:	f3bf 8f6f 	isb	sy
 80043a4:	f3bf 8f4f 	dsb	sy
 80043a8:	e7fe      	b.n	80043a8 <xQueueReceive+0x34>
 80043aa:	f000 ff13 	bl	80051d4 <xTaskGetSchedulerState>
 80043ae:	4606      	mov	r6, r0
 80043b0:	b950      	cbnz	r0, 80043c8 <xQueueReceive+0x54>
 80043b2:	9b01      	ldr	r3, [sp, #4]
 80043b4:	b14b      	cbz	r3, 80043ca <xQueueReceive+0x56>
 80043b6:	f04f 0350 	mov.w	r3, #80	; 0x50
 80043ba:	f383 8811 	msr	BASEPRI, r3
 80043be:	f3bf 8f6f 	isb	sy
 80043c2:	f3bf 8f4f 	dsb	sy
 80043c6:	e7fe      	b.n	80043c6 <xQueueReceive+0x52>
 80043c8:	2600      	movs	r6, #0
 80043ca:	f04f 0800 	mov.w	r8, #0
 80043ce:	e03d      	b.n	800444c <xQueueReceive+0xd8>
 80043d0:	9d01      	ldr	r5, [sp, #4]
 80043d2:	b91d      	cbnz	r5, 80043dc <xQueueReceive+0x68>
 80043d4:	f001 fa56 	bl	8005884 <vPortExitCritical>
 80043d8:	2000      	movs	r0, #0
 80043da:	e056      	b.n	800448a <xQueueReceive+0x116>
 80043dc:	b916      	cbnz	r6, 80043e4 <xQueueReceive+0x70>
 80043de:	a802      	add	r0, sp, #8
 80043e0:	f000 fea4 	bl	800512c <vTaskInternalSetTimeOutState>
 80043e4:	f001 fa4e 	bl	8005884 <vPortExitCritical>
 80043e8:	f000 fc1c 	bl	8004c24 <vTaskSuspendAll>
 80043ec:	f001 fa2a 	bl	8005844 <vPortEnterCritical>
 80043f0:	f894 3044 	ldrb.w	r3, [r4, #68]	; 0x44
 80043f4:	2bff      	cmp	r3, #255	; 0xff
 80043f6:	bf08      	it	eq
 80043f8:	f884 8044 	strbeq.w	r8, [r4, #68]	; 0x44
 80043fc:	f894 3045 	ldrb.w	r3, [r4, #69]	; 0x45
 8004400:	2bff      	cmp	r3, #255	; 0xff
 8004402:	bf08      	it	eq
 8004404:	f884 8045 	strbeq.w	r8, [r4, #69]	; 0x45
 8004408:	f001 fa3c 	bl	8005884 <vPortExitCritical>
 800440c:	a901      	add	r1, sp, #4
 800440e:	a802      	add	r0, sp, #8
 8004410:	f000 fe98 	bl	8005144 <xTaskCheckForTimeOut>
 8004414:	2800      	cmp	r0, #0
 8004416:	d141      	bne.n	800449c <xQueueReceive+0x128>
 8004418:	4620      	mov	r0, r4
 800441a:	f7ff fc74 	bl	8003d06 <prvIsQueueEmpty>
 800441e:	b3b8      	cbz	r0, 8004490 <xQueueReceive+0x11c>
 8004420:	9901      	ldr	r1, [sp, #4]
 8004422:	f104 0024 	add.w	r0, r4, #36	; 0x24
 8004426:	f000 fdc5 	bl	8004fb4 <vTaskPlaceOnEventList>
 800442a:	4620      	mov	r0, r4
 800442c:	f7ff fcbf 	bl	8003dae <prvUnlockQueue>
 8004430:	f000 fc9e 	bl	8004d70 <xTaskResumeAll>
 8004434:	b948      	cbnz	r0, 800444a <xQueueReceive+0xd6>
 8004436:	f04f 23e0 	mov.w	r3, #3758153728	; 0xe000e000
 800443a:	f04f 5280 	mov.w	r2, #268435456	; 0x10000000
 800443e:	f8c3 2d04 	str.w	r2, [r3, #3332]	; 0xd04
 8004442:	f3bf 8f4f 	dsb	sy
 8004446:	f3bf 8f6f 	isb	sy
 800444a:	2601      	movs	r6, #1
 800444c:	f001 f9fa 	bl	8005844 <vPortEnterCritical>
 8004450:	6ba5      	ldr	r5, [r4, #56]	; 0x38
 8004452:	2d00      	cmp	r5, #0
 8004454:	d0bc      	beq.n	80043d0 <xQueueReceive+0x5c>
 8004456:	4639      	mov	r1, r7
 8004458:	4620      	mov	r0, r4
 800445a:	3d01      	subs	r5, #1
 800445c:	f7ff fc93 	bl	8003d86 <prvCopyDataFromQueue>
 8004460:	63a5      	str	r5, [r4, #56]	; 0x38
 8004462:	6923      	ldr	r3, [r4, #16]
 8004464:	b173      	cbz	r3, 8004484 <xQueueReceive+0x110>
 8004466:	f104 0010 	add.w	r0, r4, #16
 800446a:	f000 fddd 	bl	8005028 <xTaskRemoveFromEventList>
 800446e:	b148      	cbz	r0, 8004484 <xQueueReceive+0x110>
 8004470:	f04f 23e0 	mov.w	r3, #3758153728	; 0xe000e000
 8004474:	f04f 5280 	mov.w	r2, #268435456	; 0x10000000
 8004478:	f8c3 2d04 	str.w	r2, [r3, #3332]	; 0xd04
 800447c:	f3bf 8f4f 	dsb	sy
 8004480:	f3bf 8f6f 	isb	sy
 8004484:	f001 f9fe 	bl	8005884 <vPortExitCritical>
 8004488:	2001      	movs	r0, #1
 800448a:	b004      	add	sp, #16
 800448c:	e8bd 81f0 	ldmia.w	sp!, {r4, r5, r6, r7, r8, pc}
 8004490:	4620      	mov	r0, r4
 8004492:	f7ff fc8c 	bl	8003dae <prvUnlockQueue>
 8004496:	f000 fc6b 	bl	8004d70 <xTaskResumeAll>
 800449a:	e7d6      	b.n	800444a <xQueueReceive+0xd6>
 800449c:	4620      	mov	r0, r4
 800449e:	f7ff fc86 	bl	8003dae <prvUnlockQueue>
 80044a2:	f000 fc65 	bl	8004d70 <xTaskResumeAll>
 80044a6:	4620      	mov	r0, r4
 80044a8:	f7ff fc2d 	bl	8003d06 <prvIsQueueEmpty>
 80044ac:	2800      	cmp	r0, #0
 80044ae:	d0cc      	beq.n	800444a <xQueueReceive+0xd6>
 80044b0:	e792      	b.n	80043d8 <xQueueReceive+0x64>

080044b2 <xQueueSemaphoreTake>:
 80044b2:	b5f0      	push	{r4, r5, r6, r7, lr}
 80044b4:	b085      	sub	sp, #20
 80044b6:	4604      	mov	r4, r0
 80044b8:	9101      	str	r1, [sp, #4]
 80044ba:	b940      	cbnz	r0, 80044ce <xQueueSemaphoreTake+0x1c>
 80044bc:	f04f 0350 	mov.w	r3, #80	; 0x50
 80044c0:	f383 8811 	msr	BASEPRI, r3
 80044c4:	f3bf 8f6f 	isb	sy
 80044c8:	f3bf 8f4f 	dsb	sy
 80044cc:	e7fe      	b.n	80044cc <xQueueSemaphoreTake+0x1a>
 80044ce:	6c05      	ldr	r5, [r0, #64]	; 0x40
 80044d0:	b145      	cbz	r5, 80044e4 <xQueueSemaphoreTake+0x32>
 80044d2:	f04f 0350 	mov.w	r3, #80	; 0x50
 80044d6:	f383 8811 	msr	BASEPRI, r3
 80044da:	f3bf 8f6f 	isb	sy
 80044de:	f3bf 8f4f 	dsb	sy
 80044e2:	e7fe      	b.n	80044e2 <xQueueSemaphoreTake+0x30>
 80044e4:	f000 fe76 	bl	80051d4 <xTaskGetSchedulerState>
 80044e8:	4606      	mov	r6, r0
 80044ea:	b950      	cbnz	r0, 8004502 <xQueueSemaphoreTake+0x50>
 80044ec:	9b01      	ldr	r3, [sp, #4]
 80044ee:	b15b      	cbz	r3, 8004508 <xQueueSemaphoreTake+0x56>
 80044f0:	f04f 0350 	mov.w	r3, #80	; 0x50
 80044f4:	f383 8811 	msr	BASEPRI, r3
 80044f8:	f3bf 8f6f 	isb	sy
 80044fc:	f3bf 8f4f 	dsb	sy
 8004500:	e7fe      	b.n	8004500 <xQueueSemaphoreTake+0x4e>
 8004502:	462e      	mov	r6, r5
 8004504:	2700      	movs	r7, #0
 8004506:	e053      	b.n	80045b0 <xQueueSemaphoreTake+0xfe>
 8004508:	4605      	mov	r5, r0
 800450a:	e7fb      	b.n	8004504 <xQueueSemaphoreTake+0x52>
 800450c:	9b01      	ldr	r3, [sp, #4]
 800450e:	b963      	cbnz	r3, 800452a <xQueueSemaphoreTake+0x78>
 8004510:	b145      	cbz	r5, 8004524 <xQueueSemaphoreTake+0x72>
 8004512:	f04f 0350 	mov.w	r3, #80	; 0x50
 8004516:	f383 8811 	msr	BASEPRI, r3
 800451a:	f3bf 8f6f 	isb	sy
 800451e:	f3bf 8f4f 	dsb	sy
 8004522:	e7fe      	b.n	8004522 <xQueueSemaphoreTake+0x70>
 8004524:	f001 f9ae 	bl	8005884 <vPortExitCritical>
 8004528:	e062      	b.n	80045f0 <xQueueSemaphoreTake+0x13e>
 800452a:	b916      	cbnz	r6, 8004532 <xQueueSemaphoreTake+0x80>
 800452c:	a802      	add	r0, sp, #8
 800452e:	f000 fdfd 	bl	800512c <vTaskInternalSetTimeOutState>
 8004532:	f001 f9a7 	bl	8005884 <vPortExitCritical>
 8004536:	f000 fb75 	bl	8004c24 <vTaskSuspendAll>
 800453a:	f001 f983 	bl	8005844 <vPortEnterCritical>
 800453e:	f894 3044 	ldrb.w	r3, [r4, #68]	; 0x44
 8004542:	2bff      	cmp	r3, #255	; 0xff
 8004544:	bf08      	it	eq
 8004546:	f884 7044 	strbeq.w	r7, [r4, #68]	; 0x44
 800454a:	f894 3045 	ldrb.w	r3, [r4, #69]	; 0x45
 800454e:	2bff      	cmp	r3, #255	; 0xff
 8004550:	bf08      	it	eq
 8004552:	f884 7045 	strbeq.w	r7, [r4, #69]	; 0x45
 8004556:	f001 f995 	bl	8005884 <vPortExitCritical>
 800455a:	a901      	add	r1, sp, #4
 800455c:	a802      	add	r0, sp, #8
 800455e:	f000 fdf1 	bl	8005144 <xTaskCheckForTimeOut>
 8004562:	2800      	cmp	r0, #0
 8004564:	d14d      	bne.n	8004602 <xQueueSemaphoreTake+0x150>
 8004566:	4620      	mov	r0, r4
 8004568:	f7ff fbcd 	bl	8003d06 <prvIsQueueEmpty>
 800456c:	2800      	cmp	r0, #0
 800456e:	d042      	beq.n	80045f6 <xQueueSemaphoreTake+0x144>
 8004570:	6823      	ldr	r3, [r4, #0]
 8004572:	b93b      	cbnz	r3, 8004584 <xQueueSemaphoreTake+0xd2>
 8004574:	f001 f966 	bl	8005844 <vPortEnterCritical>
 8004578:	6860      	ldr	r0, [r4, #4]
 800457a:	f000 fe3b 	bl	80051f4 <xTaskPriorityInherit>
 800457e:	4605      	mov	r5, r0
 8004580:	f001 f980 	bl	8005884 <vPortExitCritical>
 8004584:	9901      	ldr	r1, [sp, #4]
 8004586:	f104 0024 	add.w	r0, r4, #36	; 0x24
 800458a:	f000 fd13 	bl	8004fb4 <vTaskPlaceOnEventList>
 800458e:	4620      	mov	r0, r4
 8004590:	f7ff fc0d 	bl	8003dae <prvUnlockQueue>
 8004594:	f000 fbec 	bl	8004d70 <xTaskResumeAll>
 8004598:	b948      	cbnz	r0, 80045ae <xQueueSemaphoreTake+0xfc>
 800459a:	f04f 23e0 	mov.w	r3, #3758153728	; 0xe000e000
 800459e:	f04f 5280 	mov.w	r2, #268435456	; 0x10000000
 80045a2:	f8c3 2d04 	str.w	r2, [r3, #3332]	; 0xd04
 80045a6:	f3bf 8f4f 	dsb	sy
 80045aa:	f3bf 8f6f 	isb	sy
 80045ae:	2601      	movs	r6, #1
 80045b0:	f001 f948 	bl	8005844 <vPortEnterCritical>
 80045b4:	6ba3      	ldr	r3, [r4, #56]	; 0x38
 80045b6:	2b00      	cmp	r3, #0
 80045b8:	d0a8      	beq.n	800450c <xQueueSemaphoreTake+0x5a>
 80045ba:	3b01      	subs	r3, #1
 80045bc:	63a3      	str	r3, [r4, #56]	; 0x38
 80045be:	6823      	ldr	r3, [r4, #0]
 80045c0:	b913      	cbnz	r3, 80045c8 <xQueueSemaphoreTake+0x116>
 80045c2:	f000 fee7 	bl	8005394 <pvTaskIncrementMutexHeldCount>
 80045c6:	6060      	str	r0, [r4, #4]
 80045c8:	6923      	ldr	r3, [r4, #16]
 80045ca:	b173      	cbz	r3, 80045ea <xQueueSemaphoreTake+0x138>
 80045cc:	f104 0010 	add.w	r0, r4, #16
 80045d0:	f000 fd2a 	bl	8005028 <xTaskRemoveFromEventList>
 80045d4:	b148      	cbz	r0, 80045ea <xQueueSemaphoreTake+0x138>
 80045d6:	f04f 23e0 	mov.w	r3, #3758153728	; 0xe000e000
 80045da:	f04f 5280 	mov.w	r2, #268435456	; 0x10000000
 80045de:	f8c3 2d04 	str.w	r2, [r3, #3332]	; 0xd04
 80045e2:	f3bf 8f4f 	dsb	sy
 80045e6:	f3bf 8f6f 	isb	sy
 80045ea:	f001 f94b 	bl	8005884 <vPortExitCritical>
 80045ee:	2501      	movs	r5, #1
 80045f0:	4628      	mov	r0, r5
 80045f2:	b005      	add	sp, #20
 80045f4:	bdf0      	pop	{r4, r5, r6, r7, pc}
 80045f6:	4620      	mov	r0, r4
 80045f8:	f7ff fbd9 	bl	8003dae <prvUnlockQueue>
 80045fc:	f000 fbb8 	bl	8004d70 <xTaskResumeAll>
 8004600:	e7d5      	b.n	80045ae <xQueueSemaphoreTake+0xfc>
 8004602:	4620      	mov	r0, r4
 8004604:	f7ff fbd3 	bl	8003dae <prvUnlockQueue>
 8004608:	f000 fbb2 	bl	8004d70 <xTaskResumeAll>
 800460c:	4620      	mov	r0, r4
 800460e:	f7ff fb7a 	bl	8003d06 <prvIsQueueEmpty>
 8004612:	2800      	cmp	r0, #0
 8004614:	d0cb      	beq.n	80045ae <xQueueSemaphoreTake+0xfc>
 8004616:	2d00      	cmp	r5, #0
 8004618:	d0ea      	beq.n	80045f0 <xQueueSemaphoreTake+0x13e>
 800461a:	f001 f913 	bl	8005844 <vPortEnterCritical>
 800461e:	6a61      	ldr	r1, [r4, #36]	; 0x24
 8004620:	b119      	cbz	r1, 800462a <xQueueSemaphoreTake+0x178>
 8004622:	6b23      	ldr	r3, [r4, #48]	; 0x30
 8004624:	6819      	ldr	r1, [r3, #0]
 8004626:	f1c1 0138 	rsb	r1, r1, #56	; 0x38
 800462a:	6860      	ldr	r0, [r4, #4]
 800462c:	f000 fe64 	bl	80052f8 <vTaskPriorityDisinheritAfterTimeout>
 8004630:	2500      	movs	r5, #0
 8004632:	f001 f927 	bl	8005884 <vPortExitCritical>
 8004636:	e7db      	b.n	80045f0 <xQueueSemaphoreTake+0x13e>

08004638 <xQueueTakeMutexRecursive>:
 8004638:	b570      	push	{r4, r5, r6, lr}
 800463a:	460d      	mov	r5, r1
 800463c:	4604      	mov	r4, r0
 800463e:	b940      	cbnz	r0, 8004652 <xQueueTakeMutexRecursive+0x1a>
 8004640:	f04f 0350 	mov.w	r3, #80	; 0x50
 8004644:	f383 8811 	msr	BASEPRI, r3
 8004648:	f3bf 8f6f 	isb	sy
 800464c:	f3bf 8f4f 	dsb	sy
 8004650:	e7fe      	b.n	8004650 <xQueueTakeMutexRecursive+0x18>
 8004652:	6846      	ldr	r6, [r0, #4]
 8004654:	f000 fdb8 	bl	80051c8 <xTaskGetCurrentTaskHandle>
 8004658:	4286      	cmp	r6, r0
 800465a:	d104      	bne.n	8004666 <xQueueTakeMutexRecursive+0x2e>
 800465c:	2001      	movs	r0, #1
 800465e:	68e3      	ldr	r3, [r4, #12]
 8004660:	3301      	adds	r3, #1
 8004662:	60e3      	str	r3, [r4, #12]
 8004664:	bd70      	pop	{r4, r5, r6, pc}
 8004666:	4629      	mov	r1, r5
 8004668:	4620      	mov	r0, r4
 800466a:	f7ff ff22 	bl	80044b2 <xQueueSemaphoreTake>
 800466e:	2800      	cmp	r0, #0
 8004670:	d0f8      	beq.n	8004664 <xQueueTakeMutexRecursive+0x2c>
 8004672:	68e3      	ldr	r3, [r4, #12]
 8004674:	3301      	adds	r3, #1
 8004676:	60e3      	str	r3, [r4, #12]
 8004678:	e7f4      	b.n	8004664 <xQueueTakeMutexRecursive+0x2c>

0800467a <xQueueReceiveFromISR>:
 800467a:	e92d 43f8 	stmdb	sp!, {r3, r4, r5, r6, r7, r8, r9, lr}
 800467e:	4689      	mov	r9, r1
 8004680:	4690      	mov	r8, r2
 8004682:	4605      	mov	r5, r0
 8004684:	b940      	cbnz	r0, 8004698 <xQueueReceiveFromISR+0x1e>
 8004686:	f04f 0350 	mov.w	r3, #80	; 0x50
 800468a:	f383 8811 	msr	BASEPRI, r3
 800468e:	f3bf 8f6f 	isb	sy
 8004692:	f3bf 8f4f 	dsb	sy
 8004696:	e7fe      	b.n	8004696 <xQueueReceiveFromISR+0x1c>
 8004698:	b951      	cbnz	r1, 80046b0 <xQueueReceiveFromISR+0x36>
 800469a:	6c03      	ldr	r3, [r0, #64]	; 0x40
 800469c:	b143      	cbz	r3, 80046b0 <xQueueReceiveFromISR+0x36>
 800469e:	f04f 0350 	mov.w	r3, #80	; 0x50
 80046a2:	f383 8811 	msr	BASEPRI, r3
 80046a6:	f3bf 8f6f 	isb	sy
 80046aa:	f3bf 8f4f 	dsb	sy
 80046ae:	e7fe      	b.n	80046ae <xQueueReceiveFromISR+0x34>
 80046b0:	f001 f9a4 	bl	80059fc <vPortValidateInterruptPriority>
 80046b4:	f3ef 8711 	mrs	r7, BASEPRI
 80046b8:	f04f 0350 	mov.w	r3, #80	; 0x50
 80046bc:	f383 8811 	msr	BASEPRI, r3
 80046c0:	f3bf 8f6f 	isb	sy
 80046c4:	f3bf 8f4f 	dsb	sy
 80046c8:	6bac      	ldr	r4, [r5, #56]	; 0x38
 80046ca:	b31c      	cbz	r4, 8004714 <xQueueReceiveFromISR+0x9a>
 80046cc:	f895 6044 	ldrb.w	r6, [r5, #68]	; 0x44
 80046d0:	4649      	mov	r1, r9
 80046d2:	4628      	mov	r0, r5
 80046d4:	b276      	sxtb	r6, r6
 80046d6:	f7ff fb56 	bl	8003d86 <prvCopyDataFromQueue>
 80046da:	3c01      	subs	r4, #1
 80046dc:	1c73      	adds	r3, r6, #1
 80046de:	63ac      	str	r4, [r5, #56]	; 0x38
 80046e0:	d113      	bne.n	800470a <xQueueReceiveFromISR+0x90>
 80046e2:	692b      	ldr	r3, [r5, #16]
 80046e4:	b90b      	cbnz	r3, 80046ea <xQueueReceiveFromISR+0x70>
 80046e6:	2001      	movs	r0, #1
 80046e8:	e00b      	b.n	8004702 <xQueueReceiveFromISR+0x88>
 80046ea:	f105 0010 	add.w	r0, r5, #16
 80046ee:	f000 fc9b 	bl	8005028 <xTaskRemoveFromEventList>
 80046f2:	2800      	cmp	r0, #0
 80046f4:	d0f7      	beq.n	80046e6 <xQueueReceiveFromISR+0x6c>
 80046f6:	f1b8 0f00 	cmp.w	r8, #0
 80046fa:	d0f4      	beq.n	80046e6 <xQueueReceiveFromISR+0x6c>
 80046fc:	2001      	movs	r0, #1
 80046fe:	f8c8 0000 	str.w	r0, [r8]
 8004702:	f387 8811 	msr	BASEPRI, r7
 8004706:	e8bd 83f8 	ldmia.w	sp!, {r3, r4, r5, r6, r7, r8, r9, pc}
 800470a:	3601      	adds	r6, #1
 800470c:	b276      	sxtb	r6, r6
 800470e:	f885 6044 	strb.w	r6, [r5, #68]	; 0x44
 8004712:	e7e8      	b.n	80046e6 <xQueueReceiveFromISR+0x6c>
 8004714:	4620      	mov	r0, r4
 8004716:	e7f4      	b.n	8004702 <xQueueReceiveFromISR+0x88>

08004718 <vQueueAddToRegistry>:
 8004718:	2300      	movs	r3, #0
 800471a:	b510      	push	{r4, lr}
 800471c:	4a06      	ldr	r2, [pc, #24]	; (8004738 <vQueueAddToRegistry+0x20>)
 800471e:	f852 4033 	ldr.w	r4, [r2, r3, lsl #3]
 8004722:	b92c      	cbnz	r4, 8004730 <vQueueAddToRegistry+0x18>
 8004724:	f842 1033 	str.w	r1, [r2, r3, lsl #3]
 8004728:	eb02 03c3 	add.w	r3, r2, r3, lsl #3
 800472c:	6058      	str	r0, [r3, #4]
 800472e:	bd10      	pop	{r4, pc}
 8004730:	3301      	adds	r3, #1
 8004732:	2b08      	cmp	r3, #8
 8004734:	d1f3      	bne.n	800471e <vQueueAddToRegistry+0x6>
 8004736:	e7fa      	b.n	800472e <vQueueAddToRegistry+0x16>
 8004738:	200016cc 	.word	0x200016cc

0800473c <vQueueUnregisterQueue>:
 800473c:	2300      	movs	r3, #0
 800473e:	b510      	push	{r4, lr}
 8004740:	4a07      	ldr	r2, [pc, #28]	; (8004760 <vQueueUnregisterQueue+0x24>)
 8004742:	eb02 01c3 	add.w	r1, r2, r3, lsl #3
 8004746:	684c      	ldr	r4, [r1, #4]
 8004748:	4284      	cmp	r4, r0
 800474a:	d104      	bne.n	8004756 <vQueueUnregisterQueue+0x1a>
 800474c:	2000      	movs	r0, #0
 800474e:	f842 0033 	str.w	r0, [r2, r3, lsl #3]
 8004752:	6048      	str	r0, [r1, #4]
 8004754:	bd10      	pop	{r4, pc}
 8004756:	3301      	adds	r3, #1
 8004758:	2b08      	cmp	r3, #8
 800475a:	d1f2      	bne.n	8004742 <vQueueUnregisterQueue+0x6>
 800475c:	e7fa      	b.n	8004754 <vQueueUnregisterQueue+0x18>
 800475e:	bf00      	nop
 8004760:	200016cc 	.word	0x200016cc

08004764 <vQueueDelete>:
 8004764:	b510      	push	{r4, lr}
 8004766:	4604      	mov	r4, r0
 8004768:	b940      	cbnz	r0, 800477c <vQueueDelete+0x18>
 800476a:	f04f 0350 	mov.w	r3, #80	; 0x50
 800476e:	f383 8811 	msr	BASEPRI, r3
 8004772:	f3bf 8f6f 	isb	sy
 8004776:	f3bf 8f4f 	dsb	sy
 800477a:	e7fe      	b.n	800477a <vQueueDelete+0x16>
 800477c:	f7ff ffde 	bl	800473c <vQueueUnregisterQueue>
 8004780:	f894 3046 	ldrb.w	r3, [r4, #70]	; 0x46
 8004784:	b923      	cbnz	r3, 8004790 <vQueueDelete+0x2c>
 8004786:	4620      	mov	r0, r4
 8004788:	e8bd 4010 	ldmia.w	sp!, {r4, lr}
 800478c:	f001 ba18 	b.w	8005bc0 <vPortFree>
 8004790:	bd10      	pop	{r4, pc}

08004792 <vQueueWaitForMessageRestricted>:
 8004792:	b570      	push	{r4, r5, r6, lr}
 8004794:	4604      	mov	r4, r0
 8004796:	460d      	mov	r5, r1
 8004798:	4616      	mov	r6, r2
 800479a:	f001 f853 	bl	8005844 <vPortEnterCritical>
 800479e:	f894 3044 	ldrb.w	r3, [r4, #68]	; 0x44
 80047a2:	2bff      	cmp	r3, #255	; 0xff
 80047a4:	bf04      	itt	eq
 80047a6:	2300      	moveq	r3, #0
 80047a8:	f884 3044 	strbeq.w	r3, [r4, #68]	; 0x44
 80047ac:	f894 3045 	ldrb.w	r3, [r4, #69]	; 0x45
 80047b0:	2bff      	cmp	r3, #255	; 0xff
 80047b2:	bf04      	itt	eq
 80047b4:	2300      	moveq	r3, #0
 80047b6:	f884 3045 	strbeq.w	r3, [r4, #69]	; 0x45
 80047ba:	f001 f863 	bl	8005884 <vPortExitCritical>
 80047be:	6ba3      	ldr	r3, [r4, #56]	; 0x38
 80047c0:	b92b      	cbnz	r3, 80047ce <vQueueWaitForMessageRestricted+0x3c>
 80047c2:	4632      	mov	r2, r6
 80047c4:	4629      	mov	r1, r5
 80047c6:	f104 0024 	add.w	r0, r4, #36	; 0x24
 80047ca:	f000 fc0d 	bl	8004fe8 <vTaskPlaceOnEventListRestricted>
 80047ce:	4620      	mov	r0, r4
 80047d0:	e8bd 4070 	ldmia.w	sp!, {r4, r5, r6, lr}
 80047d4:	f7ff baeb 	b.w	8003dae <prvUnlockQueue>

080047d8 <prvAddNewTaskToReadyList>:
 80047d8:	e92d 41f0 	stmdb	sp!, {r4, r5, r6, r7, r8, lr}
 80047dc:	4604      	mov	r4, r0
 80047de:	f001 f831 	bl	8005844 <vPortEnterCritical>
 80047e2:	4b30      	ldr	r3, [pc, #192]	; (80048a4 <prvAddNewTaskToReadyList+0xcc>)
 80047e4:	4e30      	ldr	r6, [pc, #192]	; (80048a8 <prvAddNewTaskToReadyList+0xd0>)
 80047e6:	681a      	ldr	r2, [r3, #0]
 80047e8:	4f30      	ldr	r7, [pc, #192]	; (80048ac <prvAddNewTaskToReadyList+0xd4>)
 80047ea:	3201      	adds	r2, #1
 80047ec:	601a      	str	r2, [r3, #0]
 80047ee:	6835      	ldr	r5, [r6, #0]
 80047f0:	2d00      	cmp	r5, #0
 80047f2:	d14b      	bne.n	800488c <prvAddNewTaskToReadyList+0xb4>
 80047f4:	6034      	str	r4, [r6, #0]
 80047f6:	681b      	ldr	r3, [r3, #0]
 80047f8:	2b01      	cmp	r3, #1
 80047fa:	d11f      	bne.n	800483c <prvAddNewTaskToReadyList+0x64>
 80047fc:	46b8      	mov	r8, r7
 80047fe:	4640      	mov	r0, r8
 8004800:	3501      	adds	r5, #1
 8004802:	f7ff fa3f 	bl	8003c84 <vListInitialise>
 8004806:	2d38      	cmp	r5, #56	; 0x38
 8004808:	f108 0814 	add.w	r8, r8, #20
 800480c:	d1f7      	bne.n	80047fe <prvAddNewTaskToReadyList+0x26>
 800480e:	f8df 80a0 	ldr.w	r8, [pc, #160]	; 80048b0 <prvAddNewTaskToReadyList+0xd8>
 8004812:	4d28      	ldr	r5, [pc, #160]	; (80048b4 <prvAddNewTaskToReadyList+0xdc>)
 8004814:	4640      	mov	r0, r8
 8004816:	f7ff fa35 	bl	8003c84 <vListInitialise>
 800481a:	4628      	mov	r0, r5
 800481c:	f7ff fa32 	bl	8003c84 <vListInitialise>
 8004820:	4825      	ldr	r0, [pc, #148]	; (80048b8 <prvAddNewTaskToReadyList+0xe0>)
 8004822:	f7ff fa2f 	bl	8003c84 <vListInitialise>
 8004826:	4825      	ldr	r0, [pc, #148]	; (80048bc <prvAddNewTaskToReadyList+0xe4>)
 8004828:	f7ff fa2c 	bl	8003c84 <vListInitialise>
 800482c:	4824      	ldr	r0, [pc, #144]	; (80048c0 <prvAddNewTaskToReadyList+0xe8>)
 800482e:	f7ff fa29 	bl	8003c84 <vListInitialise>
 8004832:	4b24      	ldr	r3, [pc, #144]	; (80048c4 <prvAddNewTaskToReadyList+0xec>)
 8004834:	f8c3 8000 	str.w	r8, [r3]
 8004838:	4b23      	ldr	r3, [pc, #140]	; (80048c8 <prvAddNewTaskToReadyList+0xf0>)
 800483a:	601d      	str	r5, [r3, #0]
 800483c:	2014      	movs	r0, #20
 800483e:	4a23      	ldr	r2, [pc, #140]	; (80048cc <prvAddNewTaskToReadyList+0xf4>)
 8004840:	6813      	ldr	r3, [r2, #0]
 8004842:	3301      	adds	r3, #1
 8004844:	6013      	str	r3, [r2, #0]
 8004846:	4a22      	ldr	r2, [pc, #136]	; (80048d0 <prvAddNewTaskToReadyList+0xf8>)
 8004848:	64a3      	str	r3, [r4, #72]	; 0x48
 800484a:	6811      	ldr	r1, [r2, #0]
 800484c:	6ae3      	ldr	r3, [r4, #44]	; 0x2c
 800484e:	428b      	cmp	r3, r1
 8004850:	fb00 7003 	mla	r0, r0, r3, r7
 8004854:	f104 0104 	add.w	r1, r4, #4
 8004858:	bf88      	it	hi
 800485a:	6013      	strhi	r3, [r2, #0]
 800485c:	f7ff fa20 	bl	8003ca0 <vListInsertEnd>
 8004860:	f001 f810 	bl	8005884 <vPortExitCritical>
 8004864:	4b1b      	ldr	r3, [pc, #108]	; (80048d4 <prvAddNewTaskToReadyList+0xfc>)
 8004866:	681b      	ldr	r3, [r3, #0]
 8004868:	b173      	cbz	r3, 8004888 <prvAddNewTaskToReadyList+0xb0>
 800486a:	6833      	ldr	r3, [r6, #0]
 800486c:	6ada      	ldr	r2, [r3, #44]	; 0x2c
 800486e:	6ae3      	ldr	r3, [r4, #44]	; 0x2c
 8004870:	429a      	cmp	r2, r3
 8004872:	d209      	bcs.n	8004888 <prvAddNewTaskToReadyList+0xb0>
 8004874:	f04f 23e0 	mov.w	r3, #3758153728	; 0xe000e000
 8004878:	f04f 5280 	mov.w	r2, #268435456	; 0x10000000
 800487c:	f8c3 2d04 	str.w	r2, [r3, #3332]	; 0xd04
 8004880:	f3bf 8f4f 	dsb	sy
 8004884:	f3bf 8f6f 	isb	sy
 8004888:	e8bd 81f0 	ldmia.w	sp!, {r4, r5, r6, r7, r8, pc}
 800488c:	4b11      	ldr	r3, [pc, #68]	; (80048d4 <prvAddNewTaskToReadyList+0xfc>)
 800488e:	681b      	ldr	r3, [r3, #0]
 8004890:	2b00      	cmp	r3, #0
 8004892:	d1d3      	bne.n	800483c <prvAddNewTaskToReadyList+0x64>
 8004894:	6833      	ldr	r3, [r6, #0]
 8004896:	6ada      	ldr	r2, [r3, #44]	; 0x2c
 8004898:	6ae3      	ldr	r3, [r4, #44]	; 0x2c
 800489a:	429a      	cmp	r2, r3
 800489c:	bf98      	it	ls
 800489e:	6034      	strls	r4, [r6, #0]
 80048a0:	e7cc      	b.n	800483c <prvAddNewTaskToReadyList+0x64>
 80048a2:	bf00      	nop
 80048a4:	20001b78 	.word	0x20001b78
 80048a8:	2000170c 	.word	0x2000170c
 80048ac:	20001718 	.word	0x20001718
 80048b0:	20001b90 	.word	0x20001b90
 80048b4:	20001ba4 	.word	0x20001ba4
 80048b8:	20001bc0 	.word	0x20001bc0
 80048bc:	20001bec 	.word	0x20001bec
 80048c0:	20001bd8 	.word	0x20001bd8
 80048c4:	20001710 	.word	0x20001710
 80048c8:	20001714 	.word	0x20001714
 80048cc:	20001b88 	.word	0x20001b88
 80048d0:	20001b8c 	.word	0x20001b8c
 80048d4:	20001bd4 	.word	0x20001bd4

080048d8 <prvAddCurrentTaskToDelayedList>:
 80048d8:	b5f8      	push	{r3, r4, r5, r6, r7, lr}
 80048da:	4606      	mov	r6, r0
 80048dc:	4b14      	ldr	r3, [pc, #80]	; (8004930 <prvAddCurrentTaskToDelayedList+0x58>)
 80048de:	4d15      	ldr	r5, [pc, #84]	; (8004934 <prvAddCurrentTaskToDelayedList+0x5c>)
 80048e0:	681c      	ldr	r4, [r3, #0]
 80048e2:	6828      	ldr	r0, [r5, #0]
 80048e4:	460f      	mov	r7, r1
 80048e6:	3004      	adds	r0, #4
 80048e8:	f7ff f9fd 	bl	8003ce6 <uxListRemove>
 80048ec:	1c73      	adds	r3, r6, #1
 80048ee:	d107      	bne.n	8004900 <prvAddCurrentTaskToDelayedList+0x28>
 80048f0:	b137      	cbz	r7, 8004900 <prvAddCurrentTaskToDelayedList+0x28>
 80048f2:	6829      	ldr	r1, [r5, #0]
 80048f4:	4810      	ldr	r0, [pc, #64]	; (8004938 <prvAddCurrentTaskToDelayedList+0x60>)
 80048f6:	3104      	adds	r1, #4
 80048f8:	e8bd 40f8 	ldmia.w	sp!, {r3, r4, r5, r6, r7, lr}
 80048fc:	f7ff b9d0 	b.w	8003ca0 <vListInsertEnd>
 8004900:	682b      	ldr	r3, [r5, #0]
 8004902:	19a4      	adds	r4, r4, r6
 8004904:	605c      	str	r4, [r3, #4]
 8004906:	d307      	bcc.n	8004918 <prvAddCurrentTaskToDelayedList+0x40>
 8004908:	4b0c      	ldr	r3, [pc, #48]	; (800493c <prvAddCurrentTaskToDelayedList+0x64>)
 800490a:	6818      	ldr	r0, [r3, #0]
 800490c:	6829      	ldr	r1, [r5, #0]
 800490e:	e8bd 40f8 	ldmia.w	sp!, {r3, r4, r5, r6, r7, lr}
 8004912:	3104      	adds	r1, #4
 8004914:	f7ff b9d0 	b.w	8003cb8 <vListInsert>
 8004918:	4b09      	ldr	r3, [pc, #36]	; (8004940 <prvAddCurrentTaskToDelayedList+0x68>)
 800491a:	6818      	ldr	r0, [r3, #0]
 800491c:	6829      	ldr	r1, [r5, #0]
 800491e:	3104      	adds	r1, #4
 8004920:	f7ff f9ca 	bl	8003cb8 <vListInsert>
 8004924:	4b07      	ldr	r3, [pc, #28]	; (8004944 <prvAddCurrentTaskToDelayedList+0x6c>)
 8004926:	681a      	ldr	r2, [r3, #0]
 8004928:	42a2      	cmp	r2, r4
 800492a:	bf88      	it	hi
 800492c:	601c      	strhi	r4, [r3, #0]
 800492e:	bdf8      	pop	{r3, r4, r5, r6, r7, pc}
 8004930:	20001c00 	.word	0x20001c00
 8004934:	2000170c 	.word	0x2000170c
 8004938:	20001bd8 	.word	0x20001bd8
 800493c:	20001714 	.word	0x20001714
 8004940:	20001710 	.word	0x20001710
 8004944:	20001bb8 	.word	0x20001bb8

08004948 <prvResetNextTaskUnblockTime>:
 8004948:	4a06      	ldr	r2, [pc, #24]	; (8004964 <prvResetNextTaskUnblockTime+0x1c>)
 800494a:	6813      	ldr	r3, [r2, #0]
 800494c:	6819      	ldr	r1, [r3, #0]
 800494e:	4b06      	ldr	r3, [pc, #24]	; (8004968 <prvResetNextTaskUnblockTime+0x20>)
 8004950:	b919      	cbnz	r1, 800495a <prvResetNextTaskUnblockTime+0x12>
 8004952:	f04f 32ff 	mov.w	r2, #4294967295
 8004956:	601a      	str	r2, [r3, #0]
 8004958:	4770      	bx	lr
 800495a:	6812      	ldr	r2, [r2, #0]
 800495c:	68d2      	ldr	r2, [r2, #12]
 800495e:	68d2      	ldr	r2, [r2, #12]
 8004960:	6852      	ldr	r2, [r2, #4]
 8004962:	e7f8      	b.n	8004956 <prvResetNextTaskUnblockTime+0xe>
 8004964:	20001710 	.word	0x20001710
 8004968:	20001bb8 	.word	0x20001bb8

0800496c <prvDeleteTCB>:
 800496c:	b510      	push	{r4, lr}
 800496e:	4604      	mov	r4, r0
 8004970:	3058      	adds	r0, #88	; 0x58
 8004972:	f001 f9a7 	bl	8005cc4 <_reclaim_reent>
 8004976:	f894 30bd 	ldrb.w	r3, [r4, #189]	; 0xbd
 800497a:	b93b      	cbnz	r3, 800498c <prvDeleteTCB+0x20>
 800497c:	6b20      	ldr	r0, [r4, #48]	; 0x30
 800497e:	f001 f91f 	bl	8005bc0 <vPortFree>
 8004982:	4620      	mov	r0, r4
 8004984:	e8bd 4010 	ldmia.w	sp!, {r4, lr}
 8004988:	f001 b91a 	b.w	8005bc0 <vPortFree>
 800498c:	2b01      	cmp	r3, #1
 800498e:	d0f8      	beq.n	8004982 <prvDeleteTCB+0x16>
 8004990:	2b02      	cmp	r3, #2
 8004992:	d008      	beq.n	80049a6 <prvDeleteTCB+0x3a>
 8004994:	f04f 0350 	mov.w	r3, #80	; 0x50
 8004998:	f383 8811 	msr	BASEPRI, r3
 800499c:	f3bf 8f6f 	isb	sy
 80049a0:	f3bf 8f4f 	dsb	sy
 80049a4:	e7fe      	b.n	80049a4 <prvDeleteTCB+0x38>
 80049a6:	bd10      	pop	{r4, pc}

080049a8 <prvIdleTask>:
 80049a8:	b580      	push	{r7, lr}
 80049aa:	4c13      	ldr	r4, [pc, #76]	; (80049f8 <prvIdleTask+0x50>)
 80049ac:	4f13      	ldr	r7, [pc, #76]	; (80049fc <prvIdleTask+0x54>)
 80049ae:	4d14      	ldr	r5, [pc, #80]	; (8004a00 <prvIdleTask+0x58>)
 80049b0:	6823      	ldr	r3, [r4, #0]
 80049b2:	b973      	cbnz	r3, 80049d2 <prvIdleTask+0x2a>
 80049b4:	4b13      	ldr	r3, [pc, #76]	; (8004a04 <prvIdleTask+0x5c>)
 80049b6:	681b      	ldr	r3, [r3, #0]
 80049b8:	2b01      	cmp	r3, #1
 80049ba:	d9f8      	bls.n	80049ae <prvIdleTask+0x6>
 80049bc:	f04f 23e0 	mov.w	r3, #3758153728	; 0xe000e000
 80049c0:	f04f 5280 	mov.w	r2, #268435456	; 0x10000000
 80049c4:	f8c3 2d04 	str.w	r2, [r3, #3332]	; 0xd04
 80049c8:	f3bf 8f4f 	dsb	sy
 80049cc:	f3bf 8f6f 	isb	sy
 80049d0:	e7ed      	b.n	80049ae <prvIdleTask+0x6>
 80049d2:	f000 ff37 	bl	8005844 <vPortEnterCritical>
 80049d6:	68fb      	ldr	r3, [r7, #12]
 80049d8:	68de      	ldr	r6, [r3, #12]
 80049da:	1d30      	adds	r0, r6, #4
 80049dc:	f7ff f983 	bl	8003ce6 <uxListRemove>
 80049e0:	682b      	ldr	r3, [r5, #0]
 80049e2:	3b01      	subs	r3, #1
 80049e4:	602b      	str	r3, [r5, #0]
 80049e6:	6823      	ldr	r3, [r4, #0]
 80049e8:	3b01      	subs	r3, #1
 80049ea:	6023      	str	r3, [r4, #0]
 80049ec:	f000 ff4a 	bl	8005884 <vPortExitCritical>
 80049f0:	4630      	mov	r0, r6
 80049f2:	f7ff ffbb 	bl	800496c <prvDeleteTCB>
 80049f6:	e7db      	b.n	80049b0 <prvIdleTask+0x8>
 80049f8:	20001b7c 	.word	0x20001b7c
 80049fc:	20001bec 	.word	0x20001bec
 8004a00:	20001b78 	.word	0x20001b78
 8004a04:	20001718 	.word	0x20001718

08004a08 <prvInitialiseNewTask.constprop.0>:
 8004a08:	e92d 47f0 	stmdb	sp!, {r4, r5, r6, r7, r8, r9, sl, lr}
 8004a0c:	460d      	mov	r5, r1
 8004a0e:	e9dd 8409 	ldrd	r8, r4, [sp, #36]	; 0x24
 8004a12:	ea4f 0982 	mov.w	r9, r2, lsl #2
 8004a16:	464a      	mov	r2, r9
 8004a18:	4606      	mov	r6, r0
 8004a1a:	21a5      	movs	r1, #165	; 0xa5
 8004a1c:	6b20      	ldr	r0, [r4, #48]	; 0x30
 8004a1e:	461f      	mov	r7, r3
 8004a20:	f001 f93a 	bl	8005c98 <memset>
 8004a24:	6b22      	ldr	r2, [r4, #48]	; 0x30
 8004a26:	f1a9 0904 	sub.w	r9, r9, #4
 8004a2a:	4491      	add	r9, r2
 8004a2c:	1e6b      	subs	r3, r5, #1
 8004a2e:	f029 0907 	bic.w	r9, r9, #7
 8004a32:	f104 0234 	add.w	r2, r4, #52	; 0x34
 8004a36:	3511      	adds	r5, #17
 8004a38:	f813 1f01 	ldrb.w	r1, [r3, #1]!
 8004a3c:	f802 1b01 	strb.w	r1, [r2], #1
 8004a40:	b109      	cbz	r1, 8004a46 <prvInitialiseNewTask.constprop.0+0x3e>
 8004a42:	42ab      	cmp	r3, r5
 8004a44:	d1f8      	bne.n	8004a38 <prvInitialiseNewTask.constprop.0+0x30>
 8004a46:	9d08      	ldr	r5, [sp, #32]
 8004a48:	f04f 0a00 	mov.w	sl, #0
 8004a4c:	2d37      	cmp	r5, #55	; 0x37
 8004a4e:	bf28      	it	cs
 8004a50:	2537      	movcs	r5, #55	; 0x37
 8004a52:	1d20      	adds	r0, r4, #4
 8004a54:	e9c4 5a14 	strd	r5, sl, [r4, #80]	; 0x50
 8004a58:	62e5      	str	r5, [r4, #44]	; 0x2c
 8004a5a:	f884 a045 	strb.w	sl, [r4, #69]	; 0x45
 8004a5e:	f7ff f91c 	bl	8003c9a <vListInitialiseItem>
 8004a62:	f1c5 0538 	rsb	r5, r5, #56	; 0x38
 8004a66:	f104 0018 	add.w	r0, r4, #24
 8004a6a:	f7ff f916 	bl	8003c9a <vListInitialiseItem>
 8004a6e:	2260      	movs	r2, #96	; 0x60
 8004a70:	4651      	mov	r1, sl
 8004a72:	f8c4 a0b8 	str.w	sl, [r4, #184]	; 0xb8
 8004a76:	6124      	str	r4, [r4, #16]
 8004a78:	61a5      	str	r5, [r4, #24]
 8004a7a:	6264      	str	r4, [r4, #36]	; 0x24
 8004a7c:	f884 a0bc 	strb.w	sl, [r4, #188]	; 0xbc
 8004a80:	f104 0058 	add.w	r0, r4, #88	; 0x58
 8004a84:	f001 f908 	bl	8005c98 <memset>
 8004a88:	4b09      	ldr	r3, [pc, #36]	; (8004ab0 <prvInitialiseNewTask.constprop.0+0xa8>)
 8004a8a:	463a      	mov	r2, r7
 8004a8c:	65e3      	str	r3, [r4, #92]	; 0x5c
 8004a8e:	4b09      	ldr	r3, [pc, #36]	; (8004ab4 <prvInitialiseNewTask.constprop.0+0xac>)
 8004a90:	4631      	mov	r1, r6
 8004a92:	6623      	str	r3, [r4, #96]	; 0x60
 8004a94:	4b08      	ldr	r3, [pc, #32]	; (8004ab8 <prvInitialiseNewTask.constprop.0+0xb0>)
 8004a96:	4648      	mov	r0, r9
 8004a98:	6663      	str	r3, [r4, #100]	; 0x64
 8004a9a:	f000 feab 	bl	80057f4 <pxPortInitialiseStack>
 8004a9e:	6020      	str	r0, [r4, #0]
 8004aa0:	f1b8 0f00 	cmp.w	r8, #0
 8004aa4:	d001      	beq.n	8004aaa <prvInitialiseNewTask.constprop.0+0xa2>
 8004aa6:	f8c8 4000 	str.w	r4, [r8]
 8004aaa:	e8bd 87f0 	ldmia.w	sp!, {r4, r5, r6, r7, r8, r9, sl, pc}
 8004aae:	bf00      	nop
 8004ab0:	08006008 	.word	0x08006008
 8004ab4:	08006028 	.word	0x08006028
 8004ab8:	08005fe8 	.word	0x08005fe8

08004abc <xTaskCreateStatic>:
 8004abc:	b570      	push	{r4, r5, r6, lr}
 8004abe:	b086      	sub	sp, #24
 8004ac0:	e9dd 540b 	ldrd	r5, r4, [sp, #44]	; 0x2c
 8004ac4:	b945      	cbnz	r5, 8004ad8 <xTaskCreateStatic+0x1c>
 8004ac6:	f04f 0350 	mov.w	r3, #80	; 0x50
 8004aca:	f383 8811 	msr	BASEPRI, r3
 8004ace:	f3bf 8f6f 	isb	sy
 8004ad2:	f3bf 8f4f 	dsb	sy
 8004ad6:	e7fe      	b.n	8004ad6 <xTaskCreateStatic+0x1a>
 8004ad8:	b944      	cbnz	r4, 8004aec <xTaskCreateStatic+0x30>
 8004ada:	f04f 0350 	mov.w	r3, #80	; 0x50
 8004ade:	f383 8811 	msr	BASEPRI, r3
 8004ae2:	f3bf 8f6f 	isb	sy
 8004ae6:	f3bf 8f4f 	dsb	sy
 8004aea:	e7fe      	b.n	8004aea <xTaskCreateStatic+0x2e>
 8004aec:	26c0      	movs	r6, #192	; 0xc0
 8004aee:	9605      	str	r6, [sp, #20]
 8004af0:	9e05      	ldr	r6, [sp, #20]
 8004af2:	2ec0      	cmp	r6, #192	; 0xc0
 8004af4:	d008      	beq.n	8004b08 <xTaskCreateStatic+0x4c>
 8004af6:	f04f 0350 	mov.w	r3, #80	; 0x50
 8004afa:	f383 8811 	msr	BASEPRI, r3
 8004afe:	f3bf 8f6f 	isb	sy
 8004b02:	f3bf 8f4f 	dsb	sy
 8004b06:	e7fe      	b.n	8004b06 <xTaskCreateStatic+0x4a>
 8004b08:	6325      	str	r5, [r4, #48]	; 0x30
 8004b0a:	2502      	movs	r5, #2
 8004b0c:	f884 50bd 	strb.w	r5, [r4, #189]	; 0xbd
 8004b10:	ad04      	add	r5, sp, #16
 8004b12:	9501      	str	r5, [sp, #4]
 8004b14:	9d0a      	ldr	r5, [sp, #40]	; 0x28
 8004b16:	9402      	str	r4, [sp, #8]
 8004b18:	9500      	str	r5, [sp, #0]
 8004b1a:	f7ff ff75 	bl	8004a08 <prvInitialiseNewTask.constprop.0>
 8004b1e:	4620      	mov	r0, r4
 8004b20:	f7ff fe5a 	bl	80047d8 <prvAddNewTaskToReadyList>
 8004b24:	9804      	ldr	r0, [sp, #16]
 8004b26:	b006      	add	sp, #24
 8004b28:	bd70      	pop	{r4, r5, r6, pc}

08004b2a <xTaskCreate>:
 8004b2a:	e92d 43f0 	stmdb	sp!, {r4, r5, r6, r7, r8, r9, lr}
 8004b2e:	4607      	mov	r7, r0
 8004b30:	b085      	sub	sp, #20
 8004b32:	0090      	lsls	r0, r2, #2
 8004b34:	4688      	mov	r8, r1
 8004b36:	4616      	mov	r6, r2
 8004b38:	4699      	mov	r9, r3
 8004b3a:	f000 ffb1 	bl	8005aa0 <pvPortMalloc>
 8004b3e:	4605      	mov	r5, r0
 8004b40:	b1e8      	cbz	r0, 8004b7e <xTaskCreate+0x54>
 8004b42:	20c0      	movs	r0, #192	; 0xc0
 8004b44:	f000 ffac 	bl	8005aa0 <pvPortMalloc>
 8004b48:	4604      	mov	r4, r0
 8004b4a:	b1a8      	cbz	r0, 8004b78 <xTaskCreate+0x4e>
 8004b4c:	2300      	movs	r3, #0
 8004b4e:	f880 30bd 	strb.w	r3, [r0, #189]	; 0xbd
 8004b52:	9b0d      	ldr	r3, [sp, #52]	; 0x34
 8004b54:	6305      	str	r5, [r0, #48]	; 0x30
 8004b56:	9301      	str	r3, [sp, #4]
 8004b58:	9b0c      	ldr	r3, [sp, #48]	; 0x30
 8004b5a:	4632      	mov	r2, r6
 8004b5c:	4641      	mov	r1, r8
 8004b5e:	9002      	str	r0, [sp, #8]
 8004b60:	9300      	str	r3, [sp, #0]
 8004b62:	4638      	mov	r0, r7
 8004b64:	464b      	mov	r3, r9
 8004b66:	f7ff ff4f 	bl	8004a08 <prvInitialiseNewTask.constprop.0>
 8004b6a:	4620      	mov	r0, r4
 8004b6c:	f7ff fe34 	bl	80047d8 <prvAddNewTaskToReadyList>
 8004b70:	2001      	movs	r0, #1
 8004b72:	b005      	add	sp, #20
 8004b74:	e8bd 83f0 	ldmia.w	sp!, {r4, r5, r6, r7, r8, r9, pc}
 8004b78:	4628      	mov	r0, r5
 8004b7a:	f001 f821 	bl	8005bc0 <vPortFree>
 8004b7e:	f04f 30ff 	mov.w	r0, #4294967295
 8004b82:	e7f6      	b.n	8004b72 <xTaskCreate+0x48>

08004b84 <vTaskStartScheduler>:
 8004b84:	b510      	push	{r4, lr}
 8004b86:	2400      	movs	r4, #0
 8004b88:	b088      	sub	sp, #32
 8004b8a:	aa07      	add	r2, sp, #28
 8004b8c:	a906      	add	r1, sp, #24
 8004b8e:	a805      	add	r0, sp, #20
 8004b90:	e9cd 4405 	strd	r4, r4, [sp, #20]
 8004b94:	f7fe ffa2 	bl	8003adc <vApplicationGetIdleTaskMemory>
 8004b98:	9b05      	ldr	r3, [sp, #20]
 8004b9a:	9a07      	ldr	r2, [sp, #28]
 8004b9c:	9302      	str	r3, [sp, #8]
 8004b9e:	9b06      	ldr	r3, [sp, #24]
 8004ba0:	4919      	ldr	r1, [pc, #100]	; (8004c08 <vTaskStartScheduler+0x84>)
 8004ba2:	e9cd 4300 	strd	r4, r3, [sp]
 8004ba6:	4819      	ldr	r0, [pc, #100]	; (8004c0c <vTaskStartScheduler+0x88>)
 8004ba8:	4623      	mov	r3, r4
 8004baa:	f7ff ff87 	bl	8004abc <xTaskCreateStatic>
 8004bae:	b340      	cbz	r0, 8004c02 <vTaskStartScheduler+0x7e>
 8004bb0:	f000 fc4e 	bl	8005450 <xTimerCreateTimerTask>
 8004bb4:	2801      	cmp	r0, #1
 8004bb6:	d119      	bne.n	8004bec <vTaskStartScheduler+0x68>
 8004bb8:	f04f 0350 	mov.w	r3, #80	; 0x50
 8004bbc:	f383 8811 	msr	BASEPRI, r3
 8004bc0:	f3bf 8f6f 	isb	sy
 8004bc4:	f3bf 8f4f 	dsb	sy
 8004bc8:	4b11      	ldr	r3, [pc, #68]	; (8004c10 <vTaskStartScheduler+0x8c>)
 8004bca:	4a12      	ldr	r2, [pc, #72]	; (8004c14 <vTaskStartScheduler+0x90>)
 8004bcc:	681b      	ldr	r3, [r3, #0]
 8004bce:	3358      	adds	r3, #88	; 0x58
 8004bd0:	6013      	str	r3, [r2, #0]
 8004bd2:	f04f 32ff 	mov.w	r2, #4294967295
 8004bd6:	4b10      	ldr	r3, [pc, #64]	; (8004c18 <vTaskStartScheduler+0x94>)
 8004bd8:	601a      	str	r2, [r3, #0]
 8004bda:	4b10      	ldr	r3, [pc, #64]	; (8004c1c <vTaskStartScheduler+0x98>)
 8004bdc:	6018      	str	r0, [r3, #0]
 8004bde:	4b10      	ldr	r3, [pc, #64]	; (8004c20 <vTaskStartScheduler+0x9c>)
 8004be0:	601c      	str	r4, [r3, #0]
 8004be2:	b008      	add	sp, #32
 8004be4:	e8bd 4010 	ldmia.w	sp!, {r4, lr}
 8004be8:	f000 beac 	b.w	8005944 <xPortStartScheduler>
 8004bec:	3001      	adds	r0, #1
 8004bee:	d108      	bne.n	8004c02 <vTaskStartScheduler+0x7e>
 8004bf0:	f04f 0350 	mov.w	r3, #80	; 0x50
 8004bf4:	f383 8811 	msr	BASEPRI, r3
 8004bf8:	f3bf 8f6f 	isb	sy
 8004bfc:	f3bf 8f4f 	dsb	sy
 8004c00:	e7fe      	b.n	8004c00 <vTaskStartScheduler+0x7c>
 8004c02:	b008      	add	sp, #32
 8004c04:	bd10      	pop	{r4, pc}
 8004c06:	bf00      	nop
 8004c08:	08005fd5 	.word	0x08005fd5
 8004c0c:	080049a9 	.word	0x080049a9
 8004c10:	2000170c 	.word	0x2000170c
 8004c14:	20000010 	.word	0x20000010
 8004c18:	20001bb8 	.word	0x20001bb8
 8004c1c:	20001bd4 	.word	0x20001bd4
 8004c20:	20001c00 	.word	0x20001c00

08004c24 <vTaskSuspendAll>:
 8004c24:	4a02      	ldr	r2, [pc, #8]	; (8004c30 <vTaskSuspendAll+0xc>)
 8004c26:	6813      	ldr	r3, [r2, #0]
 8004c28:	3301      	adds	r3, #1
 8004c2a:	6013      	str	r3, [r2, #0]
 8004c2c:	4770      	bx	lr
 8004c2e:	bf00      	nop
 8004c30:	20001b84 	.word	0x20001b84

08004c34 <xTaskGetTickCount>:
 8004c34:	4b01      	ldr	r3, [pc, #4]	; (8004c3c <xTaskGetTickCount+0x8>)
 8004c36:	6818      	ldr	r0, [r3, #0]
 8004c38:	4770      	bx	lr
 8004c3a:	bf00      	nop
 8004c3c:	20001c00 	.word	0x20001c00

08004c40 <xTaskGetTickCountFromISR>:
 8004c40:	b508      	push	{r3, lr}
 8004c42:	f000 fedb 	bl	80059fc <vPortValidateInterruptPriority>
 8004c46:	4b01      	ldr	r3, [pc, #4]	; (8004c4c <xTaskGetTickCountFromISR+0xc>)
 8004c48:	6818      	ldr	r0, [r3, #0]
 8004c4a:	bd08      	pop	{r3, pc}
 8004c4c:	20001c00 	.word	0x20001c00

08004c50 <xTaskIncrementTick>:
 8004c50:	e92d 4ff8 	stmdb	sp!, {r3, r4, r5, r6, r7, r8, r9, sl, fp, lr}
 8004c54:	4b3b      	ldr	r3, [pc, #236]	; (8004d44 <xTaskIncrementTick+0xf4>)
 8004c56:	681b      	ldr	r3, [r3, #0]
 8004c58:	2b00      	cmp	r3, #0
 8004c5a:	d16d      	bne.n	8004d38 <xTaskIncrementTick+0xe8>
 8004c5c:	4b3a      	ldr	r3, [pc, #232]	; (8004d48 <xTaskIncrementTick+0xf8>)
 8004c5e:	681d      	ldr	r5, [r3, #0]
 8004c60:	3501      	adds	r5, #1
 8004c62:	601d      	str	r5, [r3, #0]
 8004c64:	b9bd      	cbnz	r5, 8004c96 <xTaskIncrementTick+0x46>
 8004c66:	4b39      	ldr	r3, [pc, #228]	; (8004d4c <xTaskIncrementTick+0xfc>)
 8004c68:	681a      	ldr	r2, [r3, #0]
 8004c6a:	6812      	ldr	r2, [r2, #0]
 8004c6c:	b142      	cbz	r2, 8004c80 <xTaskIncrementTick+0x30>
 8004c6e:	f04f 0350 	mov.w	r3, #80	; 0x50
 8004c72:	f383 8811 	msr	BASEPRI, r3
 8004c76:	f3bf 8f6f 	isb	sy
 8004c7a:	f3bf 8f4f 	dsb	sy
 8004c7e:	e7fe      	b.n	8004c7e <xTaskIncrementTick+0x2e>
 8004c80:	4a33      	ldr	r2, [pc, #204]	; (8004d50 <xTaskIncrementTick+0x100>)
 8004c82:	6819      	ldr	r1, [r3, #0]
 8004c84:	6810      	ldr	r0, [r2, #0]
 8004c86:	6018      	str	r0, [r3, #0]
 8004c88:	6011      	str	r1, [r2, #0]
 8004c8a:	4a32      	ldr	r2, [pc, #200]	; (8004d54 <xTaskIncrementTick+0x104>)
 8004c8c:	6813      	ldr	r3, [r2, #0]
 8004c8e:	3301      	adds	r3, #1
 8004c90:	6013      	str	r3, [r2, #0]
 8004c92:	f7ff fe59 	bl	8004948 <prvResetNextTaskUnblockTime>
 8004c96:	4e30      	ldr	r6, [pc, #192]	; (8004d58 <xTaskIncrementTick+0x108>)
 8004c98:	2400      	movs	r4, #0
 8004c9a:	6833      	ldr	r3, [r6, #0]
 8004c9c:	4f2f      	ldr	r7, [pc, #188]	; (8004d5c <xTaskIncrementTick+0x10c>)
 8004c9e:	42ab      	cmp	r3, r5
 8004ca0:	d910      	bls.n	8004cc4 <xTaskIncrementTick+0x74>
 8004ca2:	2214      	movs	r2, #20
 8004ca4:	4b2e      	ldr	r3, [pc, #184]	; (8004d60 <xTaskIncrementTick+0x110>)
 8004ca6:	681b      	ldr	r3, [r3, #0]
 8004ca8:	6adb      	ldr	r3, [r3, #44]	; 0x2c
 8004caa:	4353      	muls	r3, r2
 8004cac:	58fb      	ldr	r3, [r7, r3]
 8004cae:	2b02      	cmp	r3, #2
 8004cb0:	bf28      	it	cs
 8004cb2:	2401      	movcs	r4, #1
 8004cb4:	4b2b      	ldr	r3, [pc, #172]	; (8004d64 <xTaskIncrementTick+0x114>)
 8004cb6:	681b      	ldr	r3, [r3, #0]
 8004cb8:	2b00      	cmp	r3, #0
 8004cba:	bf0c      	ite	eq
 8004cbc:	4620      	moveq	r0, r4
 8004cbe:	2001      	movne	r0, #1
 8004cc0:	e8bd 8ff8 	ldmia.w	sp!, {r3, r4, r5, r6, r7, r8, r9, sl, fp, pc}
 8004cc4:	f8df 9084 	ldr.w	r9, [pc, #132]	; 8004d4c <xTaskIncrementTick+0xfc>
 8004cc8:	f8df a09c 	ldr.w	sl, [pc, #156]	; 8004d68 <xTaskIncrementTick+0x118>
 8004ccc:	f8d9 3000 	ldr.w	r3, [r9]
 8004cd0:	681b      	ldr	r3, [r3, #0]
 8004cd2:	b91b      	cbnz	r3, 8004cdc <xTaskIncrementTick+0x8c>
 8004cd4:	f04f 33ff 	mov.w	r3, #4294967295
 8004cd8:	6033      	str	r3, [r6, #0]
 8004cda:	e7e2      	b.n	8004ca2 <xTaskIncrementTick+0x52>
 8004cdc:	f8d9 3000 	ldr.w	r3, [r9]
 8004ce0:	68db      	ldr	r3, [r3, #12]
 8004ce2:	f8d3 b00c 	ldr.w	fp, [r3, #12]
 8004ce6:	f8db 2004 	ldr.w	r2, [fp, #4]
 8004cea:	4295      	cmp	r5, r2
 8004cec:	d201      	bcs.n	8004cf2 <xTaskIncrementTick+0xa2>
 8004cee:	6032      	str	r2, [r6, #0]
 8004cf0:	e7d7      	b.n	8004ca2 <xTaskIncrementTick+0x52>
 8004cf2:	f10b 0804 	add.w	r8, fp, #4
 8004cf6:	4640      	mov	r0, r8
 8004cf8:	f7fe fff5 	bl	8003ce6 <uxListRemove>
 8004cfc:	f8db 2028 	ldr.w	r2, [fp, #40]	; 0x28
 8004d00:	b11a      	cbz	r2, 8004d0a <xTaskIncrementTick+0xba>
 8004d02:	f10b 0018 	add.w	r0, fp, #24
 8004d06:	f7fe ffee 	bl	8003ce6 <uxListRemove>
 8004d0a:	2314      	movs	r3, #20
 8004d0c:	f8db 002c 	ldr.w	r0, [fp, #44]	; 0x2c
 8004d10:	f8da 2000 	ldr.w	r2, [sl]
 8004d14:	4641      	mov	r1, r8
 8004d16:	4290      	cmp	r0, r2
 8004d18:	bf88      	it	hi
 8004d1a:	f8ca 0000 	strhi.w	r0, [sl]
 8004d1e:	fb03 7000 	mla	r0, r3, r0, r7
 8004d22:	f7fe ffbd 	bl	8003ca0 <vListInsertEnd>
 8004d26:	4b0e      	ldr	r3, [pc, #56]	; (8004d60 <xTaskIncrementTick+0x110>)
 8004d28:	f8db 202c 	ldr.w	r2, [fp, #44]	; 0x2c
 8004d2c:	6819      	ldr	r1, [r3, #0]
 8004d2e:	6acb      	ldr	r3, [r1, #44]	; 0x2c
 8004d30:	429a      	cmp	r2, r3
 8004d32:	bf28      	it	cs
 8004d34:	2401      	movcs	r4, #1
 8004d36:	e7c9      	b.n	8004ccc <xTaskIncrementTick+0x7c>
 8004d38:	4a0c      	ldr	r2, [pc, #48]	; (8004d6c <xTaskIncrementTick+0x11c>)
 8004d3a:	2400      	movs	r4, #0
 8004d3c:	6813      	ldr	r3, [r2, #0]
 8004d3e:	3301      	adds	r3, #1
 8004d40:	6013      	str	r3, [r2, #0]
 8004d42:	e7b7      	b.n	8004cb4 <xTaskIncrementTick+0x64>
 8004d44:	20001b84 	.word	0x20001b84
 8004d48:	20001c00 	.word	0x20001c00
 8004d4c:	20001710 	.word	0x20001710
 8004d50:	20001714 	.word	0x20001714
 8004d54:	20001bbc 	.word	0x20001bbc
 8004d58:	20001bb8 	.word	0x20001bb8
 8004d5c:	20001718 	.word	0x20001718
 8004d60:	2000170c 	.word	0x2000170c
 8004d64:	20001c04 	.word	0x20001c04
 8004d68:	20001b8c 	.word	0x20001b8c
 8004d6c:	20001b80 	.word	0x20001b80

08004d70 <xTaskResumeAll>:
 8004d70:	e92d 41f0 	stmdb	sp!, {r4, r5, r6, r7, r8, lr}
 8004d74:	4c30      	ldr	r4, [pc, #192]	; (8004e38 <xTaskResumeAll+0xc8>)
 8004d76:	6823      	ldr	r3, [r4, #0]
 8004d78:	b943      	cbnz	r3, 8004d8c <xTaskResumeAll+0x1c>
 8004d7a:	f04f 0350 	mov.w	r3, #80	; 0x50
 8004d7e:	f383 8811 	msr	BASEPRI, r3
 8004d82:	f3bf 8f6f 	isb	sy
 8004d86:	f3bf 8f4f 	dsb	sy
 8004d8a:	e7fe      	b.n	8004d8a <xTaskResumeAll+0x1a>
 8004d8c:	f000 fd5a 	bl	8005844 <vPortEnterCritical>
 8004d90:	6823      	ldr	r3, [r4, #0]
 8004d92:	3b01      	subs	r3, #1
 8004d94:	6023      	str	r3, [r4, #0]
 8004d96:	6824      	ldr	r4, [r4, #0]
 8004d98:	b12c      	cbz	r4, 8004da6 <xTaskResumeAll+0x36>
 8004d9a:	2400      	movs	r4, #0
 8004d9c:	f000 fd72 	bl	8005884 <vPortExitCritical>
 8004da0:	4620      	mov	r0, r4
 8004da2:	e8bd 81f0 	ldmia.w	sp!, {r4, r5, r6, r7, r8, pc}
 8004da6:	4b25      	ldr	r3, [pc, #148]	; (8004e3c <xTaskResumeAll+0xcc>)
 8004da8:	681b      	ldr	r3, [r3, #0]
 8004daa:	2b00      	cmp	r3, #0
 8004dac:	d0f5      	beq.n	8004d9a <xTaskResumeAll+0x2a>
 8004dae:	4d24      	ldr	r5, [pc, #144]	; (8004e40 <xTaskResumeAll+0xd0>)
 8004db0:	4e24      	ldr	r6, [pc, #144]	; (8004e44 <xTaskResumeAll+0xd4>)
 8004db2:	f8df 8094 	ldr.w	r8, [pc, #148]	; 8004e48 <xTaskResumeAll+0xd8>
 8004db6:	e01d      	b.n	8004df4 <xTaskResumeAll+0x84>
 8004db8:	68eb      	ldr	r3, [r5, #12]
 8004dba:	68dc      	ldr	r4, [r3, #12]
 8004dbc:	1d27      	adds	r7, r4, #4
 8004dbe:	f104 0018 	add.w	r0, r4, #24
 8004dc2:	f7fe ff90 	bl	8003ce6 <uxListRemove>
 8004dc6:	4638      	mov	r0, r7
 8004dc8:	f7fe ff8d 	bl	8003ce6 <uxListRemove>
 8004dcc:	2014      	movs	r0, #20
 8004dce:	6ae3      	ldr	r3, [r4, #44]	; 0x2c
 8004dd0:	6832      	ldr	r2, [r6, #0]
 8004dd2:	fb00 8003 	mla	r0, r0, r3, r8
 8004dd6:	4293      	cmp	r3, r2
 8004dd8:	4639      	mov	r1, r7
 8004dda:	bf88      	it	hi
 8004ddc:	6033      	strhi	r3, [r6, #0]
 8004dde:	f7fe ff5f 	bl	8003ca0 <vListInsertEnd>
 8004de2:	4b1a      	ldr	r3, [pc, #104]	; (8004e4c <xTaskResumeAll+0xdc>)
 8004de4:	6ae2      	ldr	r2, [r4, #44]	; 0x2c
 8004de6:	681b      	ldr	r3, [r3, #0]
 8004de8:	6adb      	ldr	r3, [r3, #44]	; 0x2c
 8004dea:	429a      	cmp	r2, r3
 8004dec:	d302      	bcc.n	8004df4 <xTaskResumeAll+0x84>
 8004dee:	2201      	movs	r2, #1
 8004df0:	4b17      	ldr	r3, [pc, #92]	; (8004e50 <xTaskResumeAll+0xe0>)
 8004df2:	601a      	str	r2, [r3, #0]
 8004df4:	682b      	ldr	r3, [r5, #0]
 8004df6:	2b00      	cmp	r3, #0
 8004df8:	d1de      	bne.n	8004db8 <xTaskResumeAll+0x48>
 8004dfa:	b10c      	cbz	r4, 8004e00 <xTaskResumeAll+0x90>
 8004dfc:	f7ff fda4 	bl	8004948 <prvResetNextTaskUnblockTime>
 8004e00:	4d14      	ldr	r5, [pc, #80]	; (8004e54 <xTaskResumeAll+0xe4>)
 8004e02:	682c      	ldr	r4, [r5, #0]
 8004e04:	b144      	cbz	r4, 8004e18 <xTaskResumeAll+0xa8>
 8004e06:	2701      	movs	r7, #1
 8004e08:	4e11      	ldr	r6, [pc, #68]	; (8004e50 <xTaskResumeAll+0xe0>)
 8004e0a:	f7ff ff21 	bl	8004c50 <xTaskIncrementTick>
 8004e0e:	b100      	cbz	r0, 8004e12 <xTaskResumeAll+0xa2>
 8004e10:	6037      	str	r7, [r6, #0]
 8004e12:	3c01      	subs	r4, #1
 8004e14:	d1f9      	bne.n	8004e0a <xTaskResumeAll+0x9a>
 8004e16:	602c      	str	r4, [r5, #0]
 8004e18:	4b0d      	ldr	r3, [pc, #52]	; (8004e50 <xTaskResumeAll+0xe0>)
 8004e1a:	681b      	ldr	r3, [r3, #0]
 8004e1c:	2b00      	cmp	r3, #0
 8004e1e:	d0bc      	beq.n	8004d9a <xTaskResumeAll+0x2a>
 8004e20:	f04f 23e0 	mov.w	r3, #3758153728	; 0xe000e000
 8004e24:	f04f 5280 	mov.w	r2, #268435456	; 0x10000000
 8004e28:	f8c3 2d04 	str.w	r2, [r3, #3332]	; 0xd04
 8004e2c:	f3bf 8f4f 	dsb	sy
 8004e30:	f3bf 8f6f 	isb	sy
 8004e34:	2401      	movs	r4, #1
 8004e36:	e7b1      	b.n	8004d9c <xTaskResumeAll+0x2c>
 8004e38:	20001b84 	.word	0x20001b84
 8004e3c:	20001b78 	.word	0x20001b78
 8004e40:	20001bc0 	.word	0x20001bc0
 8004e44:	20001b8c 	.word	0x20001b8c
 8004e48:	20001718 	.word	0x20001718
 8004e4c:	2000170c 	.word	0x2000170c
 8004e50:	20001c04 	.word	0x20001c04
 8004e54:	20001b80 	.word	0x20001b80

08004e58 <vTaskDelayUntil>:
 8004e58:	b510      	push	{r4, lr}
 8004e5a:	b940      	cbnz	r0, 8004e6e <vTaskDelayUntil+0x16>
 8004e5c:	f04f 0350 	mov.w	r3, #80	; 0x50
 8004e60:	f383 8811 	msr	BASEPRI, r3
 8004e64:	f3bf 8f6f 	isb	sy
 8004e68:	f3bf 8f4f 	dsb	sy
 8004e6c:	e7fe      	b.n	8004e6c <vTaskDelayUntil+0x14>
 8004e6e:	b941      	cbnz	r1, 8004e82 <vTaskDelayUntil+0x2a>
 8004e70:	f04f 0350 	mov.w	r3, #80	; 0x50
 8004e74:	f383 8811 	msr	BASEPRI, r3
 8004e78:	f3bf 8f6f 	isb	sy
 8004e7c:	f3bf 8f4f 	dsb	sy
 8004e80:	e7fe      	b.n	8004e80 <vTaskDelayUntil+0x28>
 8004e82:	4b17      	ldr	r3, [pc, #92]	; (8004ee0 <vTaskDelayUntil+0x88>)
 8004e84:	681b      	ldr	r3, [r3, #0]
 8004e86:	b143      	cbz	r3, 8004e9a <vTaskDelayUntil+0x42>
 8004e88:	f04f 0350 	mov.w	r3, #80	; 0x50
 8004e8c:	f383 8811 	msr	BASEPRI, r3
 8004e90:	f3bf 8f6f 	isb	sy
 8004e94:	f3bf 8f4f 	dsb	sy
 8004e98:	e7fe      	b.n	8004e98 <vTaskDelayUntil+0x40>
 8004e9a:	f7ff fec3 	bl	8004c24 <vTaskSuspendAll>
 8004e9e:	4b11      	ldr	r3, [pc, #68]	; (8004ee4 <vTaskDelayUntil+0x8c>)
 8004ea0:	6804      	ldr	r4, [r0, #0]
 8004ea2:	681a      	ldr	r2, [r3, #0]
 8004ea4:	1863      	adds	r3, r4, r1
 8004ea6:	bf2c      	ite	cs
 8004ea8:	2101      	movcs	r1, #1
 8004eaa:	2100      	movcc	r1, #0
 8004eac:	4294      	cmp	r4, r2
 8004eae:	6003      	str	r3, [r0, #0]
 8004eb0:	d90e      	bls.n	8004ed0 <vTaskDelayUntil+0x78>
 8004eb2:	b971      	cbnz	r1, 8004ed2 <vTaskDelayUntil+0x7a>
 8004eb4:	f7ff ff5c 	bl	8004d70 <xTaskResumeAll>
 8004eb8:	b948      	cbnz	r0, 8004ece <vTaskDelayUntil+0x76>
 8004eba:	f04f 23e0 	mov.w	r3, #3758153728	; 0xe000e000
 8004ebe:	f04f 5280 	mov.w	r2, #268435456	; 0x10000000
 8004ec2:	f8c3 2d04 	str.w	r2, [r3, #3332]	; 0xd04
 8004ec6:	f3bf 8f4f 	dsb	sy
 8004eca:	f3bf 8f6f 	isb	sy
 8004ece:	bd10      	pop	{r4, pc}
 8004ed0:	b909      	cbnz	r1, 8004ed6 <vTaskDelayUntil+0x7e>
 8004ed2:	429a      	cmp	r2, r3
 8004ed4:	d2ee      	bcs.n	8004eb4 <vTaskDelayUntil+0x5c>
 8004ed6:	2100      	movs	r1, #0
 8004ed8:	1a98      	subs	r0, r3, r2
 8004eda:	f7ff fcfd 	bl	80048d8 <prvAddCurrentTaskToDelayedList>
 8004ede:	e7e9      	b.n	8004eb4 <vTaskDelayUntil+0x5c>
 8004ee0:	20001b84 	.word	0x20001b84
 8004ee4:	20001c00 	.word	0x20001c00

08004ee8 <vTaskDelay>:
 8004ee8:	b508      	push	{r3, lr}
 8004eea:	b950      	cbnz	r0, 8004f02 <vTaskDelay+0x1a>
 8004eec:	f04f 23e0 	mov.w	r3, #3758153728	; 0xe000e000
 8004ef0:	f04f 5280 	mov.w	r2, #268435456	; 0x10000000
 8004ef4:	f8c3 2d04 	str.w	r2, [r3, #3332]	; 0xd04
 8004ef8:	f3bf 8f4f 	dsb	sy
 8004efc:	f3bf 8f6f 	isb	sy
 8004f00:	bd08      	pop	{r3, pc}
 8004f02:	4b0a      	ldr	r3, [pc, #40]	; (8004f2c <vTaskDelay+0x44>)
 8004f04:	6819      	ldr	r1, [r3, #0]
 8004f06:	b141      	cbz	r1, 8004f1a <vTaskDelay+0x32>
 8004f08:	f04f 0350 	mov.w	r3, #80	; 0x50
 8004f0c:	f383 8811 	msr	BASEPRI, r3
 8004f10:	f3bf 8f6f 	isb	sy
 8004f14:	f3bf 8f4f 	dsb	sy
 8004f18:	e7fe      	b.n	8004f18 <vTaskDelay+0x30>
 8004f1a:	f7ff fe83 	bl	8004c24 <vTaskSuspendAll>
 8004f1e:	f7ff fcdb 	bl	80048d8 <prvAddCurrentTaskToDelayedList>
 8004f22:	f7ff ff25 	bl	8004d70 <xTaskResumeAll>
 8004f26:	2800      	cmp	r0, #0
 8004f28:	d0e0      	beq.n	8004eec <vTaskDelay+0x4>
 8004f2a:	e7e9      	b.n	8004f00 <vTaskDelay+0x18>
 8004f2c:	20001b84 	.word	0x20001b84

08004f30 <vTaskSwitchContext>:
 8004f30:	4b1a      	ldr	r3, [pc, #104]	; (8004f9c <vTaskSwitchContext+0x6c>)
 8004f32:	b570      	push	{r4, r5, r6, lr}
 8004f34:	681a      	ldr	r2, [r3, #0]
 8004f36:	4b1a      	ldr	r3, [pc, #104]	; (8004fa0 <vTaskSwitchContext+0x70>)
 8004f38:	b112      	cbz	r2, 8004f40 <vTaskSwitchContext+0x10>
 8004f3a:	2201      	movs	r2, #1
 8004f3c:	601a      	str	r2, [r3, #0]
 8004f3e:	bd70      	pop	{r4, r5, r6, pc}
 8004f40:	2614      	movs	r6, #20
 8004f42:	4d18      	ldr	r5, [pc, #96]	; (8004fa4 <vTaskSwitchContext+0x74>)
 8004f44:	601a      	str	r2, [r3, #0]
 8004f46:	682a      	ldr	r2, [r5, #0]
 8004f48:	4917      	ldr	r1, [pc, #92]	; (8004fa8 <vTaskSwitchContext+0x78>)
 8004f4a:	fb06 f302 	mul.w	r3, r6, r2
 8004f4e:	58cc      	ldr	r4, [r1, r3]
 8004f50:	18c8      	adds	r0, r1, r3
 8004f52:	b1b4      	cbz	r4, 8004f82 <vTaskSwitchContext+0x52>
 8004f54:	6844      	ldr	r4, [r0, #4]
 8004f56:	3308      	adds	r3, #8
 8004f58:	6864      	ldr	r4, [r4, #4]
 8004f5a:	440b      	add	r3, r1
 8004f5c:	429c      	cmp	r4, r3
 8004f5e:	bf08      	it	eq
 8004f60:	6863      	ldreq	r3, [r4, #4]
 8004f62:	6044      	str	r4, [r0, #4]
 8004f64:	bf08      	it	eq
 8004f66:	6043      	streq	r3, [r0, #4]
 8004f68:	2314      	movs	r3, #20
 8004f6a:	fb03 1102 	mla	r1, r3, r2, r1
 8004f6e:	684b      	ldr	r3, [r1, #4]
 8004f70:	68d9      	ldr	r1, [r3, #12]
 8004f72:	4b0e      	ldr	r3, [pc, #56]	; (8004fac <vTaskSwitchContext+0x7c>)
 8004f74:	6019      	str	r1, [r3, #0]
 8004f76:	602a      	str	r2, [r5, #0]
 8004f78:	681b      	ldr	r3, [r3, #0]
 8004f7a:	4a0d      	ldr	r2, [pc, #52]	; (8004fb0 <vTaskSwitchContext+0x80>)
 8004f7c:	3358      	adds	r3, #88	; 0x58
 8004f7e:	6013      	str	r3, [r2, #0]
 8004f80:	e7dd      	b.n	8004f3e <vTaskSwitchContext+0xe>
 8004f82:	b942      	cbnz	r2, 8004f96 <vTaskSwitchContext+0x66>
 8004f84:	f04f 0350 	mov.w	r3, #80	; 0x50
 8004f88:	f383 8811 	msr	BASEPRI, r3
 8004f8c:	f3bf 8f6f 	isb	sy
 8004f90:	f3bf 8f4f 	dsb	sy
 8004f94:	e7fe      	b.n	8004f94 <vTaskSwitchContext+0x64>
 8004f96:	3a01      	subs	r2, #1
 8004f98:	e7d7      	b.n	8004f4a <vTaskSwitchContext+0x1a>
 8004f9a:	bf00      	nop
 8004f9c:	20001b84 	.word	0x20001b84
 8004fa0:	20001c04 	.word	0x20001c04
 8004fa4:	20001b8c 	.word	0x20001b8c
 8004fa8:	20001718 	.word	0x20001718
 8004fac:	2000170c 	.word	0x2000170c
 8004fb0:	20000010 	.word	0x20000010

08004fb4 <vTaskPlaceOnEventList>:
 8004fb4:	b510      	push	{r4, lr}
 8004fb6:	460c      	mov	r4, r1
 8004fb8:	b940      	cbnz	r0, 8004fcc <vTaskPlaceOnEventList+0x18>
 8004fba:	f04f 0350 	mov.w	r3, #80	; 0x50
 8004fbe:	f383 8811 	msr	BASEPRI, r3
 8004fc2:	f3bf 8f6f 	isb	sy
 8004fc6:	f3bf 8f4f 	dsb	sy
 8004fca:	e7fe      	b.n	8004fca <vTaskPlaceOnEventList+0x16>
 8004fcc:	4b05      	ldr	r3, [pc, #20]	; (8004fe4 <vTaskPlaceOnEventList+0x30>)
 8004fce:	6819      	ldr	r1, [r3, #0]
 8004fd0:	3118      	adds	r1, #24
 8004fd2:	f7fe fe71 	bl	8003cb8 <vListInsert>
 8004fd6:	4620      	mov	r0, r4
 8004fd8:	e8bd 4010 	ldmia.w	sp!, {r4, lr}
 8004fdc:	2101      	movs	r1, #1
 8004fde:	f7ff bc7b 	b.w	80048d8 <prvAddCurrentTaskToDelayedList>
 8004fe2:	bf00      	nop
 8004fe4:	2000170c 	.word	0x2000170c

08004fe8 <vTaskPlaceOnEventListRestricted>:
 8004fe8:	b538      	push	{r3, r4, r5, lr}
 8004fea:	460d      	mov	r5, r1
 8004fec:	4614      	mov	r4, r2
 8004fee:	b940      	cbnz	r0, 8005002 <vTaskPlaceOnEventListRestricted+0x1a>
 8004ff0:	f04f 0350 	mov.w	r3, #80	; 0x50
 8004ff4:	f383 8811 	msr	BASEPRI, r3
 8004ff8:	f3bf 8f6f 	isb	sy
 8004ffc:	f3bf 8f4f 	dsb	sy
 8005000:	e7fe      	b.n	8005000 <vTaskPlaceOnEventListRestricted+0x18>
 8005002:	4b08      	ldr	r3, [pc, #32]	; (8005024 <vTaskPlaceOnEventListRestricted+0x3c>)
 8005004:	6819      	ldr	r1, [r3, #0]
 8005006:	3118      	adds	r1, #24
 8005008:	f7fe fe4a 	bl	8003ca0 <vListInsertEnd>
 800500c:	2c00      	cmp	r4, #0
 800500e:	4621      	mov	r1, r4
 8005010:	bf08      	it	eq
 8005012:	4628      	moveq	r0, r5
 8005014:	e8bd 4038 	ldmia.w	sp!, {r3, r4, r5, lr}
 8005018:	bf18      	it	ne
 800501a:	f04f 30ff 	movne.w	r0, #4294967295
 800501e:	f7ff bc5b 	b.w	80048d8 <prvAddCurrentTaskToDelayedList>
 8005022:	bf00      	nop
 8005024:	2000170c 	.word	0x2000170c

08005028 <xTaskRemoveFromEventList>:
 8005028:	b538      	push	{r3, r4, r5, lr}
 800502a:	68c3      	ldr	r3, [r0, #12]
 800502c:	68dc      	ldr	r4, [r3, #12]
 800502e:	b944      	cbnz	r4, 8005042 <xTaskRemoveFromEventList+0x1a>
 8005030:	f04f 0350 	mov.w	r3, #80	; 0x50
 8005034:	f383 8811 	msr	BASEPRI, r3
 8005038:	f3bf 8f6f 	isb	sy
 800503c:	f3bf 8f4f 	dsb	sy
 8005040:	e7fe      	b.n	8005040 <xTaskRemoveFromEventList+0x18>
 8005042:	f104 0518 	add.w	r5, r4, #24
 8005046:	4628      	mov	r0, r5
 8005048:	f7fe fe4d 	bl	8003ce6 <uxListRemove>
 800504c:	4b10      	ldr	r3, [pc, #64]	; (8005090 <xTaskRemoveFromEventList+0x68>)
 800504e:	681b      	ldr	r3, [r3, #0]
 8005050:	b9db      	cbnz	r3, 800508a <xTaskRemoveFromEventList+0x62>
 8005052:	1d25      	adds	r5, r4, #4
 8005054:	4628      	mov	r0, r5
 8005056:	f7fe fe46 	bl	8003ce6 <uxListRemove>
 800505a:	4a0e      	ldr	r2, [pc, #56]	; (8005094 <xTaskRemoveFromEventList+0x6c>)
 800505c:	2014      	movs	r0, #20
 800505e:	6811      	ldr	r1, [r2, #0]
 8005060:	6ae3      	ldr	r3, [r4, #44]	; 0x2c
 8005062:	428b      	cmp	r3, r1
 8005064:	4629      	mov	r1, r5
 8005066:	bf88      	it	hi
 8005068:	6013      	strhi	r3, [r2, #0]
 800506a:	4a0b      	ldr	r2, [pc, #44]	; (8005098 <xTaskRemoveFromEventList+0x70>)
 800506c:	fb00 2003 	mla	r0, r0, r3, r2
 8005070:	f7fe fe16 	bl	8003ca0 <vListInsertEnd>
 8005074:	4b09      	ldr	r3, [pc, #36]	; (800509c <xTaskRemoveFromEventList+0x74>)
 8005076:	6ae2      	ldr	r2, [r4, #44]	; 0x2c
 8005078:	681b      	ldr	r3, [r3, #0]
 800507a:	6adb      	ldr	r3, [r3, #44]	; 0x2c
 800507c:	429a      	cmp	r2, r3
 800507e:	bf85      	ittet	hi
 8005080:	2001      	movhi	r0, #1
 8005082:	4b07      	ldrhi	r3, [pc, #28]	; (80050a0 <xTaskRemoveFromEventList+0x78>)
 8005084:	2000      	movls	r0, #0
 8005086:	6018      	strhi	r0, [r3, #0]
 8005088:	bd38      	pop	{r3, r4, r5, pc}
 800508a:	4629      	mov	r1, r5
 800508c:	4805      	ldr	r0, [pc, #20]	; (80050a4 <xTaskRemoveFromEventList+0x7c>)
 800508e:	e7ef      	b.n	8005070 <xTaskRemoveFromEventList+0x48>
 8005090:	20001b84 	.word	0x20001b84
 8005094:	20001b8c 	.word	0x20001b8c
 8005098:	20001718 	.word	0x20001718
 800509c:	2000170c 	.word	0x2000170c
 80050a0:	20001c04 	.word	0x20001c04
 80050a4:	20001bc0 	.word	0x20001bc0

080050a8 <vTaskRemoveFromUnorderedEventList>:
 80050a8:	4a1b      	ldr	r2, [pc, #108]	; (8005118 <vTaskRemoveFromUnorderedEventList+0x70>)
 80050aa:	b538      	push	{r3, r4, r5, lr}
 80050ac:	6812      	ldr	r2, [r2, #0]
 80050ae:	b942      	cbnz	r2, 80050c2 <vTaskRemoveFromUnorderedEventList+0x1a>
 80050b0:	f04f 0350 	mov.w	r3, #80	; 0x50
 80050b4:	f383 8811 	msr	BASEPRI, r3
 80050b8:	f3bf 8f6f 	isb	sy
 80050bc:	f3bf 8f4f 	dsb	sy
 80050c0:	e7fe      	b.n	80050c0 <vTaskRemoveFromUnorderedEventList+0x18>
 80050c2:	68c4      	ldr	r4, [r0, #12]
 80050c4:	f041 4100 	orr.w	r1, r1, #2147483648	; 0x80000000
 80050c8:	6001      	str	r1, [r0, #0]
 80050ca:	b944      	cbnz	r4, 80050de <vTaskRemoveFromUnorderedEventList+0x36>
 80050cc:	f04f 0350 	mov.w	r3, #80	; 0x50
 80050d0:	f383 8811 	msr	BASEPRI, r3
 80050d4:	f3bf 8f6f 	isb	sy
 80050d8:	f3bf 8f4f 	dsb	sy
 80050dc:	e7fe      	b.n	80050dc <vTaskRemoveFromUnorderedEventList+0x34>
 80050de:	1d25      	adds	r5, r4, #4
 80050e0:	f7fe fe01 	bl	8003ce6 <uxListRemove>
 80050e4:	4628      	mov	r0, r5
 80050e6:	f7fe fdfe 	bl	8003ce6 <uxListRemove>
 80050ea:	2014      	movs	r0, #20
 80050ec:	4a0b      	ldr	r2, [pc, #44]	; (800511c <vTaskRemoveFromUnorderedEventList+0x74>)
 80050ee:	6ae3      	ldr	r3, [r4, #44]	; 0x2c
 80050f0:	6811      	ldr	r1, [r2, #0]
 80050f2:	428b      	cmp	r3, r1
 80050f4:	bf88      	it	hi
 80050f6:	6013      	strhi	r3, [r2, #0]
 80050f8:	4a09      	ldr	r2, [pc, #36]	; (8005120 <vTaskRemoveFromUnorderedEventList+0x78>)
 80050fa:	4629      	mov	r1, r5
 80050fc:	fb00 2003 	mla	r0, r0, r3, r2
 8005100:	f7fe fdce 	bl	8003ca0 <vListInsertEnd>
 8005104:	4b07      	ldr	r3, [pc, #28]	; (8005124 <vTaskRemoveFromUnorderedEventList+0x7c>)
 8005106:	6ae2      	ldr	r2, [r4, #44]	; 0x2c
 8005108:	681b      	ldr	r3, [r3, #0]
 800510a:	6adb      	ldr	r3, [r3, #44]	; 0x2c
 800510c:	429a      	cmp	r2, r3
 800510e:	bf82      	ittt	hi
 8005110:	2201      	movhi	r2, #1
 8005112:	4b05      	ldrhi	r3, [pc, #20]	; (8005128 <vTaskRemoveFromUnorderedEventList+0x80>)
 8005114:	601a      	strhi	r2, [r3, #0]
 8005116:	bd38      	pop	{r3, r4, r5, pc}
 8005118:	20001b84 	.word	0x20001b84
 800511c:	20001b8c 	.word	0x20001b8c
 8005120:	20001718 	.word	0x20001718
 8005124:	2000170c 	.word	0x2000170c
 8005128:	20001c04 	.word	0x20001c04

0800512c <vTaskInternalSetTimeOutState>:
 800512c:	4b03      	ldr	r3, [pc, #12]	; (800513c <vTaskInternalSetTimeOutState+0x10>)
 800512e:	681b      	ldr	r3, [r3, #0]
 8005130:	6003      	str	r3, [r0, #0]
 8005132:	4b03      	ldr	r3, [pc, #12]	; (8005140 <vTaskInternalSetTimeOutState+0x14>)
 8005134:	681b      	ldr	r3, [r3, #0]
 8005136:	6043      	str	r3, [r0, #4]
 8005138:	4770      	bx	lr
 800513a:	bf00      	nop
 800513c:	20001bbc 	.word	0x20001bbc
 8005140:	20001c00 	.word	0x20001c00

08005144 <xTaskCheckForTimeOut>:
 8005144:	b570      	push	{r4, r5, r6, lr}
 8005146:	460c      	mov	r4, r1
 8005148:	4605      	mov	r5, r0
 800514a:	b940      	cbnz	r0, 800515e <xTaskCheckForTimeOut+0x1a>
 800514c:	f04f 0350 	mov.w	r3, #80	; 0x50
 8005150:	f383 8811 	msr	BASEPRI, r3
 8005154:	f3bf 8f6f 	isb	sy
 8005158:	f3bf 8f4f 	dsb	sy
 800515c:	e7fe      	b.n	800515c <xTaskCheckForTimeOut+0x18>
 800515e:	b941      	cbnz	r1, 8005172 <xTaskCheckForTimeOut+0x2e>
 8005160:	f04f 0350 	mov.w	r3, #80	; 0x50
 8005164:	f383 8811 	msr	BASEPRI, r3
 8005168:	f3bf 8f6f 	isb	sy
 800516c:	f3bf 8f4f 	dsb	sy
 8005170:	e7fe      	b.n	8005170 <xTaskCheckForTimeOut+0x2c>
 8005172:	f000 fb67 	bl	8005844 <vPortEnterCritical>
 8005176:	4b0f      	ldr	r3, [pc, #60]	; (80051b4 <xTaskCheckForTimeOut+0x70>)
 8005178:	6819      	ldr	r1, [r3, #0]
 800517a:	6823      	ldr	r3, [r4, #0]
 800517c:	1c5a      	adds	r2, r3, #1
 800517e:	d010      	beq.n	80051a2 <xTaskCheckForTimeOut+0x5e>
 8005180:	480d      	ldr	r0, [pc, #52]	; (80051b8 <xTaskCheckForTimeOut+0x74>)
 8005182:	682e      	ldr	r6, [r5, #0]
 8005184:	6800      	ldr	r0, [r0, #0]
 8005186:	686a      	ldr	r2, [r5, #4]
 8005188:	4286      	cmp	r6, r0
 800518a:	d001      	beq.n	8005190 <xTaskCheckForTimeOut+0x4c>
 800518c:	428a      	cmp	r2, r1
 800518e:	d90f      	bls.n	80051b0 <xTaskCheckForTimeOut+0x6c>
 8005190:	1a88      	subs	r0, r1, r2
 8005192:	4283      	cmp	r3, r0
 8005194:	d90a      	bls.n	80051ac <xTaskCheckForTimeOut+0x68>
 8005196:	1a5b      	subs	r3, r3, r1
 8005198:	4413      	add	r3, r2
 800519a:	4628      	mov	r0, r5
 800519c:	6023      	str	r3, [r4, #0]
 800519e:	f7ff ffc5 	bl	800512c <vTaskInternalSetTimeOutState>
 80051a2:	2400      	movs	r4, #0
 80051a4:	f000 fb6e 	bl	8005884 <vPortExitCritical>
 80051a8:	4620      	mov	r0, r4
 80051aa:	bd70      	pop	{r4, r5, r6, pc}
 80051ac:	2300      	movs	r3, #0
 80051ae:	6023      	str	r3, [r4, #0]
 80051b0:	2401      	movs	r4, #1
 80051b2:	e7f7      	b.n	80051a4 <xTaskCheckForTimeOut+0x60>
 80051b4:	20001c00 	.word	0x20001c00
 80051b8:	20001bbc 	.word	0x20001bbc

080051bc <vTaskMissedYield>:
 80051bc:	2201      	movs	r2, #1
 80051be:	4b01      	ldr	r3, [pc, #4]	; (80051c4 <vTaskMissedYield+0x8>)
 80051c0:	601a      	str	r2, [r3, #0]
 80051c2:	4770      	bx	lr
 80051c4:	20001c04 	.word	0x20001c04

080051c8 <xTaskGetCurrentTaskHandle>:
 80051c8:	4b01      	ldr	r3, [pc, #4]	; (80051d0 <xTaskGetCurrentTaskHandle+0x8>)
 80051ca:	6818      	ldr	r0, [r3, #0]
 80051cc:	4770      	bx	lr
 80051ce:	bf00      	nop
 80051d0:	2000170c 	.word	0x2000170c

080051d4 <xTaskGetSchedulerState>:
 80051d4:	4b05      	ldr	r3, [pc, #20]	; (80051ec <xTaskGetSchedulerState+0x18>)
 80051d6:	681b      	ldr	r3, [r3, #0]
 80051d8:	b133      	cbz	r3, 80051e8 <xTaskGetSchedulerState+0x14>
 80051da:	4b05      	ldr	r3, [pc, #20]	; (80051f0 <xTaskGetSchedulerState+0x1c>)
 80051dc:	681b      	ldr	r3, [r3, #0]
 80051de:	2b00      	cmp	r3, #0
 80051e0:	bf0c      	ite	eq
 80051e2:	2002      	moveq	r0, #2
 80051e4:	2000      	movne	r0, #0
 80051e6:	4770      	bx	lr
 80051e8:	2001      	movs	r0, #1
 80051ea:	4770      	bx	lr
 80051ec:	20001bd4 	.word	0x20001bd4
 80051f0:	20001b84 	.word	0x20001b84

080051f4 <xTaskPriorityInherit>:
 80051f4:	b5f8      	push	{r3, r4, r5, r6, r7, lr}
 80051f6:	4604      	mov	r4, r0
 80051f8:	b350      	cbz	r0, 8005250 <xTaskPriorityInherit+0x5c>
 80051fa:	4d1b      	ldr	r5, [pc, #108]	; (8005268 <xTaskPriorityInherit+0x74>)
 80051fc:	6ac3      	ldr	r3, [r0, #44]	; 0x2c
 80051fe:	682a      	ldr	r2, [r5, #0]
 8005200:	6ad2      	ldr	r2, [r2, #44]	; 0x2c
 8005202:	4293      	cmp	r3, r2
 8005204:	d227      	bcs.n	8005256 <xTaskPriorityInherit+0x62>
 8005206:	6982      	ldr	r2, [r0, #24]
 8005208:	4e18      	ldr	r6, [pc, #96]	; (800526c <xTaskPriorityInherit+0x78>)
 800520a:	2a00      	cmp	r2, #0
 800520c:	bfa1      	itttt	ge
 800520e:	682a      	ldrge	r2, [r5, #0]
 8005210:	6ad2      	ldrge	r2, [r2, #44]	; 0x2c
 8005212:	f1c2 0238 	rsbge	r2, r2, #56	; 0x38
 8005216:	6182      	strge	r2, [r0, #24]
 8005218:	2214      	movs	r2, #20
 800521a:	fb02 6303 	mla	r3, r2, r3, r6
 800521e:	6942      	ldr	r2, [r0, #20]
 8005220:	429a      	cmp	r2, r3
 8005222:	d111      	bne.n	8005248 <xTaskPriorityInherit+0x54>
 8005224:	1d07      	adds	r7, r0, #4
 8005226:	4638      	mov	r0, r7
 8005228:	f7fe fd5d 	bl	8003ce6 <uxListRemove>
 800522c:	682b      	ldr	r3, [r5, #0]
 800522e:	4a10      	ldr	r2, [pc, #64]	; (8005270 <xTaskPriorityInherit+0x7c>)
 8005230:	6adb      	ldr	r3, [r3, #44]	; 0x2c
 8005232:	6811      	ldr	r1, [r2, #0]
 8005234:	62e3      	str	r3, [r4, #44]	; 0x2c
 8005236:	428b      	cmp	r3, r1
 8005238:	d80b      	bhi.n	8005252 <xTaskPriorityInherit+0x5e>
 800523a:	2014      	movs	r0, #20
 800523c:	4639      	mov	r1, r7
 800523e:	fb00 6003 	mla	r0, r0, r3, r6
 8005242:	f7fe fd2d 	bl	8003ca0 <vListInsertEnd>
 8005246:	e002      	b.n	800524e <xTaskPriorityInherit+0x5a>
 8005248:	682b      	ldr	r3, [r5, #0]
 800524a:	6adb      	ldr	r3, [r3, #44]	; 0x2c
 800524c:	62c3      	str	r3, [r0, #44]	; 0x2c
 800524e:	2001      	movs	r0, #1
 8005250:	bdf8      	pop	{r3, r4, r5, r6, r7, pc}
 8005252:	6013      	str	r3, [r2, #0]
 8005254:	e7f1      	b.n	800523a <xTaskPriorityInherit+0x46>
 8005256:	682b      	ldr	r3, [r5, #0]
 8005258:	6d00      	ldr	r0, [r0, #80]	; 0x50
 800525a:	6adc      	ldr	r4, [r3, #44]	; 0x2c
 800525c:	42a0      	cmp	r0, r4
 800525e:	bf2c      	ite	cs
 8005260:	2000      	movcs	r0, #0
 8005262:	2001      	movcc	r0, #1
 8005264:	e7f4      	b.n	8005250 <xTaskPriorityInherit+0x5c>
 8005266:	bf00      	nop
 8005268:	2000170c 	.word	0x2000170c
 800526c:	20001718 	.word	0x20001718
 8005270:	20001b8c 	.word	0x20001b8c

08005274 <xTaskPriorityDisinherit>:
 8005274:	b538      	push	{r3, r4, r5, lr}
 8005276:	b908      	cbnz	r0, 800527c <xTaskPriorityDisinherit+0x8>
 8005278:	2000      	movs	r0, #0
 800527a:	bd38      	pop	{r3, r4, r5, pc}
 800527c:	4b1b      	ldr	r3, [pc, #108]	; (80052ec <xTaskPriorityDisinherit+0x78>)
 800527e:	681c      	ldr	r4, [r3, #0]
 8005280:	4284      	cmp	r4, r0
 8005282:	d008      	beq.n	8005296 <xTaskPriorityDisinherit+0x22>
 8005284:	f04f 0350 	mov.w	r3, #80	; 0x50
 8005288:	f383 8811 	msr	BASEPRI, r3
 800528c:	f3bf 8f6f 	isb	sy
 8005290:	f3bf 8f4f 	dsb	sy
 8005294:	e7fe      	b.n	8005294 <xTaskPriorityDisinherit+0x20>
 8005296:	6d63      	ldr	r3, [r4, #84]	; 0x54
 8005298:	b943      	cbnz	r3, 80052ac <xTaskPriorityDisinherit+0x38>
 800529a:	f04f 0350 	mov.w	r3, #80	; 0x50
 800529e:	f383 8811 	msr	BASEPRI, r3
 80052a2:	f3bf 8f6f 	isb	sy
 80052a6:	f3bf 8f4f 	dsb	sy
 80052aa:	e7fe      	b.n	80052aa <xTaskPriorityDisinherit+0x36>
 80052ac:	6ae1      	ldr	r1, [r4, #44]	; 0x2c
 80052ae:	6d22      	ldr	r2, [r4, #80]	; 0x50
 80052b0:	3b01      	subs	r3, #1
 80052b2:	4291      	cmp	r1, r2
 80052b4:	6563      	str	r3, [r4, #84]	; 0x54
 80052b6:	d0df      	beq.n	8005278 <xTaskPriorityDisinherit+0x4>
 80052b8:	2b00      	cmp	r3, #0
 80052ba:	d1dd      	bne.n	8005278 <xTaskPriorityDisinherit+0x4>
 80052bc:	1d25      	adds	r5, r4, #4
 80052be:	4628      	mov	r0, r5
 80052c0:	f7fe fd11 	bl	8003ce6 <uxListRemove>
 80052c4:	2014      	movs	r0, #20
 80052c6:	6d23      	ldr	r3, [r4, #80]	; 0x50
 80052c8:	f1c3 0238 	rsb	r2, r3, #56	; 0x38
 80052cc:	61a2      	str	r2, [r4, #24]
 80052ce:	4a08      	ldr	r2, [pc, #32]	; (80052f0 <xTaskPriorityDisinherit+0x7c>)
 80052d0:	62e3      	str	r3, [r4, #44]	; 0x2c
 80052d2:	6811      	ldr	r1, [r2, #0]
 80052d4:	428b      	cmp	r3, r1
 80052d6:	bf88      	it	hi
 80052d8:	6013      	strhi	r3, [r2, #0]
 80052da:	4a06      	ldr	r2, [pc, #24]	; (80052f4 <xTaskPriorityDisinherit+0x80>)
 80052dc:	4629      	mov	r1, r5
 80052de:	fb00 2003 	mla	r0, r0, r3, r2
 80052e2:	f7fe fcdd 	bl	8003ca0 <vListInsertEnd>
 80052e6:	2001      	movs	r0, #1
 80052e8:	e7c7      	b.n	800527a <xTaskPriorityDisinherit+0x6>
 80052ea:	bf00      	nop
 80052ec:	2000170c 	.word	0x2000170c
 80052f0:	20001b8c 	.word	0x20001b8c
 80052f4:	20001718 	.word	0x20001718

080052f8 <vTaskPriorityDisinheritAfterTimeout>:
 80052f8:	b570      	push	{r4, r5, r6, lr}
 80052fa:	4604      	mov	r4, r0
 80052fc:	2800      	cmp	r0, #0
 80052fe:	d041      	beq.n	8005384 <vTaskPriorityDisinheritAfterTimeout+0x8c>
 8005300:	6d42      	ldr	r2, [r0, #84]	; 0x54
 8005302:	b942      	cbnz	r2, 8005316 <vTaskPriorityDisinheritAfterTimeout+0x1e>
 8005304:	f04f 0350 	mov.w	r3, #80	; 0x50
 8005308:	f383 8811 	msr	BASEPRI, r3
 800530c:	f3bf 8f6f 	isb	sy
 8005310:	f3bf 8f4f 	dsb	sy
 8005314:	e7fe      	b.n	8005314 <vTaskPriorityDisinheritAfterTimeout+0x1c>
 8005316:	6d03      	ldr	r3, [r0, #80]	; 0x50
 8005318:	4299      	cmp	r1, r3
 800531a:	bf38      	it	cc
 800531c:	4619      	movcc	r1, r3
 800531e:	6ac3      	ldr	r3, [r0, #44]	; 0x2c
 8005320:	428b      	cmp	r3, r1
 8005322:	d02f      	beq.n	8005384 <vTaskPriorityDisinheritAfterTimeout+0x8c>
 8005324:	2a01      	cmp	r2, #1
 8005326:	d12d      	bne.n	8005384 <vTaskPriorityDisinheritAfterTimeout+0x8c>
 8005328:	4a17      	ldr	r2, [pc, #92]	; (8005388 <vTaskPriorityDisinheritAfterTimeout+0x90>)
 800532a:	6812      	ldr	r2, [r2, #0]
 800532c:	4282      	cmp	r2, r0
 800532e:	d108      	bne.n	8005342 <vTaskPriorityDisinheritAfterTimeout+0x4a>
 8005330:	f04f 0350 	mov.w	r3, #80	; 0x50
 8005334:	f383 8811 	msr	BASEPRI, r3
 8005338:	f3bf 8f6f 	isb	sy
 800533c:	f3bf 8f4f 	dsb	sy
 8005340:	e7fe      	b.n	8005340 <vTaskPriorityDisinheritAfterTimeout+0x48>
 8005342:	6982      	ldr	r2, [r0, #24]
 8005344:	4d11      	ldr	r5, [pc, #68]	; (800538c <vTaskPriorityDisinheritAfterTimeout+0x94>)
 8005346:	2a00      	cmp	r2, #0
 8005348:	f04f 0214 	mov.w	r2, #20
 800534c:	fb02 5303 	mla	r3, r2, r3, r5
 8005350:	6942      	ldr	r2, [r0, #20]
 8005352:	62c1      	str	r1, [r0, #44]	; 0x2c
 8005354:	bfa4      	itt	ge
 8005356:	f1c1 0138 	rsbge	r1, r1, #56	; 0x38
 800535a:	6181      	strge	r1, [r0, #24]
 800535c:	429a      	cmp	r2, r3
 800535e:	d111      	bne.n	8005384 <vTaskPriorityDisinheritAfterTimeout+0x8c>
 8005360:	1d06      	adds	r6, r0, #4
 8005362:	4630      	mov	r0, r6
 8005364:	f7fe fcbf 	bl	8003ce6 <uxListRemove>
 8005368:	2014      	movs	r0, #20
 800536a:	4a09      	ldr	r2, [pc, #36]	; (8005390 <vTaskPriorityDisinheritAfterTimeout+0x98>)
 800536c:	6ae3      	ldr	r3, [r4, #44]	; 0x2c
 800536e:	6811      	ldr	r1, [r2, #0]
 8005370:	fb00 5003 	mla	r0, r0, r3, r5
 8005374:	428b      	cmp	r3, r1
 8005376:	4631      	mov	r1, r6
 8005378:	e8bd 4070 	ldmia.w	sp!, {r4, r5, r6, lr}
 800537c:	bf88      	it	hi
 800537e:	6013      	strhi	r3, [r2, #0]
 8005380:	f7fe bc8e 	b.w	8003ca0 <vListInsertEnd>
 8005384:	bd70      	pop	{r4, r5, r6, pc}
 8005386:	bf00      	nop
 8005388:	2000170c 	.word	0x2000170c
 800538c:	20001718 	.word	0x20001718
 8005390:	20001b8c 	.word	0x20001b8c

08005394 <pvTaskIncrementMutexHeldCount>:
 8005394:	4b04      	ldr	r3, [pc, #16]	; (80053a8 <pvTaskIncrementMutexHeldCount+0x14>)
 8005396:	681a      	ldr	r2, [r3, #0]
 8005398:	b11a      	cbz	r2, 80053a2 <pvTaskIncrementMutexHeldCount+0xe>
 800539a:	6819      	ldr	r1, [r3, #0]
 800539c:	6d4a      	ldr	r2, [r1, #84]	; 0x54
 800539e:	3201      	adds	r2, #1
 80053a0:	654a      	str	r2, [r1, #84]	; 0x54
 80053a2:	6818      	ldr	r0, [r3, #0]
 80053a4:	4770      	bx	lr
 80053a6:	bf00      	nop
 80053a8:	2000170c 	.word	0x2000170c

080053ac <prvCheckForValidListAndQueue>:
 80053ac:	b5f7      	push	{r0, r1, r2, r4, r5, r6, r7, lr}
 80053ae:	4c11      	ldr	r4, [pc, #68]	; (80053f4 <prvCheckForValidListAndQueue+0x48>)
 80053b0:	f000 fa48 	bl	8005844 <vPortEnterCritical>
 80053b4:	6825      	ldr	r5, [r4, #0]
 80053b6:	b9bd      	cbnz	r5, 80053e8 <prvCheckForValidListAndQueue+0x3c>
 80053b8:	4f0f      	ldr	r7, [pc, #60]	; (80053f8 <prvCheckForValidListAndQueue+0x4c>)
 80053ba:	4e10      	ldr	r6, [pc, #64]	; (80053fc <prvCheckForValidListAndQueue+0x50>)
 80053bc:	4638      	mov	r0, r7
 80053be:	f7fe fc61 	bl	8003c84 <vListInitialise>
 80053c2:	4630      	mov	r0, r6
 80053c4:	f7fe fc5e 	bl	8003c84 <vListInitialise>
 80053c8:	4b0d      	ldr	r3, [pc, #52]	; (8005400 <prvCheckForValidListAndQueue+0x54>)
 80053ca:	2110      	movs	r1, #16
 80053cc:	601f      	str	r7, [r3, #0]
 80053ce:	4b0d      	ldr	r3, [pc, #52]	; (8005404 <prvCheckForValidListAndQueue+0x58>)
 80053d0:	200a      	movs	r0, #10
 80053d2:	601e      	str	r6, [r3, #0]
 80053d4:	4a0c      	ldr	r2, [pc, #48]	; (8005408 <prvCheckForValidListAndQueue+0x5c>)
 80053d6:	4b0d      	ldr	r3, [pc, #52]	; (800540c <prvCheckForValidListAndQueue+0x60>)
 80053d8:	9500      	str	r5, [sp, #0]
 80053da:	f7fe fd5f 	bl	8003e9c <xQueueGenericCreateStatic>
 80053de:	6020      	str	r0, [r4, #0]
 80053e0:	b110      	cbz	r0, 80053e8 <prvCheckForValidListAndQueue+0x3c>
 80053e2:	490b      	ldr	r1, [pc, #44]	; (8005410 <prvCheckForValidListAndQueue+0x64>)
 80053e4:	f7ff f998 	bl	8004718 <vQueueAddToRegistry>
 80053e8:	b003      	add	sp, #12
 80053ea:	e8bd 40f0 	ldmia.w	sp!, {r4, r5, r6, r7, lr}
 80053ee:	f000 ba49 	b.w	8005884 <vPortExitCritical>
 80053f2:	bf00      	nop
 80053f4:	20001d2c 	.word	0x20001d2c
 80053f8:	20001cb0 	.word	0x20001cb0
 80053fc:	20001cc4 	.word	0x20001cc4
 8005400:	20001c08 	.word	0x20001c08
 8005404:	20001c0c 	.word	0x20001c0c
 8005408:	20001c10 	.word	0x20001c10
 800540c:	20001cdc 	.word	0x20001cdc
 8005410:	08005fda 	.word	0x08005fda

08005414 <prvInsertTimerInActiveList>:
 8005414:	4291      	cmp	r1, r2
 8005416:	b508      	push	{r3, lr}
 8005418:	6041      	str	r1, [r0, #4]
 800541a:	6100      	str	r0, [r0, #16]
 800541c:	d80a      	bhi.n	8005434 <prvInsertTimerInActiveList+0x20>
 800541e:	1ad2      	subs	r2, r2, r3
 8005420:	6983      	ldr	r3, [r0, #24]
 8005422:	429a      	cmp	r2, r3
 8005424:	d20d      	bcs.n	8005442 <prvInsertTimerInActiveList+0x2e>
 8005426:	4b08      	ldr	r3, [pc, #32]	; (8005448 <prvInsertTimerInActiveList+0x34>)
 8005428:	1d01      	adds	r1, r0, #4
 800542a:	6818      	ldr	r0, [r3, #0]
 800542c:	f7fe fc44 	bl	8003cb8 <vListInsert>
 8005430:	2000      	movs	r0, #0
 8005432:	bd08      	pop	{r3, pc}
 8005434:	429a      	cmp	r2, r3
 8005436:	d201      	bcs.n	800543c <prvInsertTimerInActiveList+0x28>
 8005438:	4299      	cmp	r1, r3
 800543a:	d202      	bcs.n	8005442 <prvInsertTimerInActiveList+0x2e>
 800543c:	4b03      	ldr	r3, [pc, #12]	; (800544c <prvInsertTimerInActiveList+0x38>)
 800543e:	1d01      	adds	r1, r0, #4
 8005440:	e7f3      	b.n	800542a <prvInsertTimerInActiveList+0x16>
 8005442:	2001      	movs	r0, #1
 8005444:	e7f5      	b.n	8005432 <prvInsertTimerInActiveList+0x1e>
 8005446:	bf00      	nop
 8005448:	20001c0c 	.word	0x20001c0c
 800544c:	20001c08 	.word	0x20001c08

08005450 <xTimerCreateTimerTask>:
 8005450:	b510      	push	{r4, lr}
 8005452:	b088      	sub	sp, #32
 8005454:	f7ff ffaa 	bl	80053ac <prvCheckForValidListAndQueue>
 8005458:	4b12      	ldr	r3, [pc, #72]	; (80054a4 <xTimerCreateTimerTask+0x54>)
 800545a:	681b      	ldr	r3, [r3, #0]
 800545c:	b1b3      	cbz	r3, 800548c <xTimerCreateTimerTask+0x3c>
 800545e:	2400      	movs	r4, #0
 8005460:	aa07      	add	r2, sp, #28
 8005462:	a906      	add	r1, sp, #24
 8005464:	a805      	add	r0, sp, #20
 8005466:	e9cd 4405 	strd	r4, r4, [sp, #20]
 800546a:	f7fe fb43 	bl	8003af4 <vApplicationGetTimerTaskMemory>
 800546e:	9b05      	ldr	r3, [sp, #20]
 8005470:	9a07      	ldr	r2, [sp, #28]
 8005472:	9302      	str	r3, [sp, #8]
 8005474:	9b06      	ldr	r3, [sp, #24]
 8005476:	490c      	ldr	r1, [pc, #48]	; (80054a8 <xTimerCreateTimerTask+0x58>)
 8005478:	9301      	str	r3, [sp, #4]
 800547a:	2302      	movs	r3, #2
 800547c:	480b      	ldr	r0, [pc, #44]	; (80054ac <xTimerCreateTimerTask+0x5c>)
 800547e:	9300      	str	r3, [sp, #0]
 8005480:	4623      	mov	r3, r4
 8005482:	f7ff fb1b 	bl	8004abc <xTaskCreateStatic>
 8005486:	4b0a      	ldr	r3, [pc, #40]	; (80054b0 <xTimerCreateTimerTask+0x60>)
 8005488:	6018      	str	r0, [r3, #0]
 800548a:	b940      	cbnz	r0, 800549e <xTimerCreateTimerTask+0x4e>
 800548c:	f04f 0350 	mov.w	r3, #80	; 0x50
 8005490:	f383 8811 	msr	BASEPRI, r3
 8005494:	f3bf 8f6f 	isb	sy
 8005498:	f3bf 8f4f 	dsb	sy
 800549c:	e7fe      	b.n	800549c <xTimerCreateTimerTask+0x4c>
 800549e:	2001      	movs	r0, #1
 80054a0:	b008      	add	sp, #32
 80054a2:	bd10      	pop	{r4, pc}
 80054a4:	20001d2c 	.word	0x20001d2c
 80054a8:	08005fdf 	.word	0x08005fdf
 80054ac:	080055b5 	.word	0x080055b5
 80054b0:	20001d30 	.word	0x20001d30

080054b4 <xTimerGenericCommand>:
 80054b4:	b57f      	push	{r0, r1, r2, r3, r4, r5, r6, lr}
 80054b6:	4616      	mov	r6, r2
 80054b8:	4604      	mov	r4, r0
 80054ba:	461a      	mov	r2, r3
 80054bc:	b940      	cbnz	r0, 80054d0 <xTimerGenericCommand+0x1c>
 80054be:	f04f 0350 	mov.w	r3, #80	; 0x50
 80054c2:	f383 8811 	msr	BASEPRI, r3
 80054c6:	f3bf 8f6f 	isb	sy
 80054ca:	f3bf 8f4f 	dsb	sy
 80054ce:	e7fe      	b.n	80054ce <xTimerGenericCommand+0x1a>
 80054d0:	4d0d      	ldr	r5, [pc, #52]	; (8005508 <xTimerGenericCommand+0x54>)
 80054d2:	6828      	ldr	r0, [r5, #0]
 80054d4:	b180      	cbz	r0, 80054f8 <xTimerGenericCommand+0x44>
 80054d6:	2905      	cmp	r1, #5
 80054d8:	e9cd 1600 	strd	r1, r6, [sp]
 80054dc:	9402      	str	r4, [sp, #8]
 80054de:	dc0d      	bgt.n	80054fc <xTimerGenericCommand+0x48>
 80054e0:	f7ff fe78 	bl	80051d4 <xTaskGetSchedulerState>
 80054e4:	2300      	movs	r3, #0
 80054e6:	2802      	cmp	r0, #2
 80054e8:	bf18      	it	ne
 80054ea:	461a      	movne	r2, r3
 80054ec:	4669      	mov	r1, sp
 80054ee:	bf08      	it	eq
 80054f0:	9a08      	ldreq	r2, [sp, #32]
 80054f2:	6828      	ldr	r0, [r5, #0]
 80054f4:	f7fe fd86 	bl	8004004 <xQueueGenericSend>
 80054f8:	b004      	add	sp, #16
 80054fa:	bd70      	pop	{r4, r5, r6, pc}
 80054fc:	2300      	movs	r3, #0
 80054fe:	4669      	mov	r1, sp
 8005500:	f7fe fe83 	bl	800420a <xQueueGenericSendFromISR>
 8005504:	e7f8      	b.n	80054f8 <xTimerGenericCommand+0x44>
 8005506:	bf00      	nop
 8005508:	20001d2c 	.word	0x20001d2c

0800550c <prvSampleTimeNow>:
 800550c:	e92d 4ff7 	stmdb	sp!, {r0, r1, r2, r4, r5, r6, r7, r8, r9, sl, fp, lr}
 8005510:	4606      	mov	r6, r0
 8005512:	f7ff fb8f 	bl	8004c34 <xTaskGetTickCount>
 8005516:	f8df 8090 	ldr.w	r8, [pc, #144]	; 80055a8 <prvSampleTimeNow+0x9c>
 800551a:	4605      	mov	r5, r0
 800551c:	f8d8 3000 	ldr.w	r3, [r8]
 8005520:	4283      	cmp	r3, r0
 8005522:	d93e      	bls.n	80055a2 <prvSampleTimeNow+0x96>
 8005524:	f04f 0900 	mov.w	r9, #0
 8005528:	4f20      	ldr	r7, [pc, #128]	; (80055ac <prvSampleTimeNow+0xa0>)
 800552a:	683b      	ldr	r3, [r7, #0]
 800552c:	681a      	ldr	r2, [r3, #0]
 800552e:	b95a      	cbnz	r2, 8005548 <prvSampleTimeNow+0x3c>
 8005530:	4a1f      	ldr	r2, [pc, #124]	; (80055b0 <prvSampleTimeNow+0xa4>)
 8005532:	6811      	ldr	r1, [r2, #0]
 8005534:	6013      	str	r3, [r2, #0]
 8005536:	2301      	movs	r3, #1
 8005538:	6039      	str	r1, [r7, #0]
 800553a:	4628      	mov	r0, r5
 800553c:	6033      	str	r3, [r6, #0]
 800553e:	f8c8 5000 	str.w	r5, [r8]
 8005542:	b003      	add	sp, #12
 8005544:	e8bd 8ff0 	ldmia.w	sp!, {r4, r5, r6, r7, r8, r9, sl, fp, pc}
 8005548:	68db      	ldr	r3, [r3, #12]
 800554a:	68dc      	ldr	r4, [r3, #12]
 800554c:	f8d3 a000 	ldr.w	sl, [r3]
 8005550:	f104 0b04 	add.w	fp, r4, #4
 8005554:	4658      	mov	r0, fp
 8005556:	f7fe fbc6 	bl	8003ce6 <uxListRemove>
 800555a:	6a63      	ldr	r3, [r4, #36]	; 0x24
 800555c:	4620      	mov	r0, r4
 800555e:	4798      	blx	r3
 8005560:	69e3      	ldr	r3, [r4, #28]
 8005562:	2b01      	cmp	r3, #1
 8005564:	d1e1      	bne.n	800552a <prvSampleTimeNow+0x1e>
 8005566:	69a3      	ldr	r3, [r4, #24]
 8005568:	4453      	add	r3, sl
 800556a:	459a      	cmp	sl, r3
 800556c:	d206      	bcs.n	800557c <prvSampleTimeNow+0x70>
 800556e:	4659      	mov	r1, fp
 8005570:	6838      	ldr	r0, [r7, #0]
 8005572:	6063      	str	r3, [r4, #4]
 8005574:	6124      	str	r4, [r4, #16]
 8005576:	f7fe fb9f 	bl	8003cb8 <vListInsert>
 800557a:	e7d6      	b.n	800552a <prvSampleTimeNow+0x1e>
 800557c:	2300      	movs	r3, #0
 800557e:	4652      	mov	r2, sl
 8005580:	4619      	mov	r1, r3
 8005582:	4620      	mov	r0, r4
 8005584:	f8cd 9000 	str.w	r9, [sp]
 8005588:	f7ff ff94 	bl	80054b4 <xTimerGenericCommand>
 800558c:	2800      	cmp	r0, #0
 800558e:	d1cc      	bne.n	800552a <prvSampleTimeNow+0x1e>
 8005590:	f04f 0350 	mov.w	r3, #80	; 0x50
 8005594:	f383 8811 	msr	BASEPRI, r3
 8005598:	f3bf 8f6f 	isb	sy
 800559c:	f3bf 8f4f 	dsb	sy
 80055a0:	e7fe      	b.n	80055a0 <prvSampleTimeNow+0x94>
 80055a2:	2300      	movs	r3, #0
 80055a4:	e7c9      	b.n	800553a <prvSampleTimeNow+0x2e>
 80055a6:	bf00      	nop
 80055a8:	20001cd8 	.word	0x20001cd8
 80055ac:	20001c08 	.word	0x20001c08
 80055b0:	20001c0c 	.word	0x20001c0c

080055b4 <prvTimerTask>:
 80055b4:	e92d 43f0 	stmdb	sp!, {r4, r5, r6, r7, r8, r9, lr}
 80055b8:	4e69      	ldr	r6, [pc, #420]	; (8005760 <prvTimerTask+0x1ac>)
 80055ba:	4f6a      	ldr	r7, [pc, #424]	; (8005764 <prvTimerTask+0x1b0>)
 80055bc:	b089      	sub	sp, #36	; 0x24
 80055be:	6833      	ldr	r3, [r6, #0]
 80055c0:	681d      	ldr	r5, [r3, #0]
 80055c2:	2d00      	cmp	r5, #0
 80055c4:	d033      	beq.n	800562e <prvTimerTask+0x7a>
 80055c6:	68db      	ldr	r3, [r3, #12]
 80055c8:	f8d3 8000 	ldr.w	r8, [r3]
 80055cc:	f7ff fb2a 	bl	8004c24 <vTaskSuspendAll>
 80055d0:	a804      	add	r0, sp, #16
 80055d2:	f7ff ff9b 	bl	800550c <prvSampleTimeNow>
 80055d6:	9c04      	ldr	r4, [sp, #16]
 80055d8:	4681      	mov	r9, r0
 80055da:	2c00      	cmp	r4, #0
 80055dc:	d175      	bne.n	80056ca <prvTimerTask+0x116>
 80055de:	2d00      	cmp	r5, #0
 80055e0:	d058      	beq.n	8005694 <prvTimerTask+0xe0>
 80055e2:	4540      	cmp	r0, r8
 80055e4:	d35c      	bcc.n	80056a0 <prvTimerTask+0xec>
 80055e6:	f7ff fbc3 	bl	8004d70 <xTaskResumeAll>
 80055ea:	6833      	ldr	r3, [r6, #0]
 80055ec:	68db      	ldr	r3, [r3, #12]
 80055ee:	68dd      	ldr	r5, [r3, #12]
 80055f0:	1d28      	adds	r0, r5, #4
 80055f2:	f7fe fb78 	bl	8003ce6 <uxListRemove>
 80055f6:	69eb      	ldr	r3, [r5, #28]
 80055f8:	2b01      	cmp	r3, #1
 80055fa:	d11a      	bne.n	8005632 <prvTimerTask+0x7e>
 80055fc:	69a9      	ldr	r1, [r5, #24]
 80055fe:	4643      	mov	r3, r8
 8005600:	464a      	mov	r2, r9
 8005602:	4628      	mov	r0, r5
 8005604:	4441      	add	r1, r8
 8005606:	f7ff ff05 	bl	8005414 <prvInsertTimerInActiveList>
 800560a:	b190      	cbz	r0, 8005632 <prvTimerTask+0x7e>
 800560c:	4623      	mov	r3, r4
 800560e:	4642      	mov	r2, r8
 8005610:	4621      	mov	r1, r4
 8005612:	4628      	mov	r0, r5
 8005614:	9400      	str	r4, [sp, #0]
 8005616:	f7ff ff4d 	bl	80054b4 <xTimerGenericCommand>
 800561a:	b950      	cbnz	r0, 8005632 <prvTimerTask+0x7e>
 800561c:	f04f 0350 	mov.w	r3, #80	; 0x50
 8005620:	f383 8811 	msr	BASEPRI, r3
 8005624:	f3bf 8f6f 	isb	sy
 8005628:	f3bf 8f4f 	dsb	sy
 800562c:	e7fe      	b.n	800562c <prvTimerTask+0x78>
 800562e:	46a8      	mov	r8, r5
 8005630:	e7cc      	b.n	80055cc <prvTimerTask+0x18>
 8005632:	4628      	mov	r0, r5
 8005634:	6a6b      	ldr	r3, [r5, #36]	; 0x24
 8005636:	4798      	blx	r3
 8005638:	2500      	movs	r5, #0
 800563a:	2200      	movs	r2, #0
 800563c:	6838      	ldr	r0, [r7, #0]
 800563e:	a904      	add	r1, sp, #16
 8005640:	f7fe fe98 	bl	8004374 <xQueueReceive>
 8005644:	2800      	cmp	r0, #0
 8005646:	d0ba      	beq.n	80055be <prvTimerTask+0xa>
 8005648:	9b04      	ldr	r3, [sp, #16]
 800564a:	9806      	ldr	r0, [sp, #24]
 800564c:	2b00      	cmp	r3, #0
 800564e:	db3f      	blt.n	80056d0 <prvTimerTask+0x11c>
 8005650:	9c06      	ldr	r4, [sp, #24]
 8005652:	6963      	ldr	r3, [r4, #20]
 8005654:	2b00      	cmp	r3, #0
 8005656:	d142      	bne.n	80056de <prvTimerTask+0x12a>
 8005658:	a803      	add	r0, sp, #12
 800565a:	f7ff ff57 	bl	800550c <prvSampleTimeNow>
 800565e:	9b04      	ldr	r3, [sp, #16]
 8005660:	4602      	mov	r2, r0
 8005662:	2b09      	cmp	r3, #9
 8005664:	d8e9      	bhi.n	800563a <prvTimerTask+0x86>
 8005666:	a101      	add	r1, pc, #4	; (adr r1, 800566c <prvTimerTask+0xb8>)
 8005668:	f851 f023 	ldr.w	pc, [r1, r3, lsl #2]
 800566c:	080056e7 	.word	0x080056e7
 8005670:	080056e7 	.word	0x080056e7
 8005674:	080056e7 	.word	0x080056e7
 8005678:	0800563b 	.word	0x0800563b
 800567c:	0800572b 	.word	0x0800572b
 8005680:	0800574f 	.word	0x0800574f
 8005684:	080056e7 	.word	0x080056e7
 8005688:	080056e7 	.word	0x080056e7
 800568c:	0800563b 	.word	0x0800563b
 8005690:	0800572b 	.word	0x0800572b
 8005694:	4b34      	ldr	r3, [pc, #208]	; (8005768 <prvTimerTask+0x1b4>)
 8005696:	681b      	ldr	r3, [r3, #0]
 8005698:	681c      	ldr	r4, [r3, #0]
 800569a:	fab4 f484 	clz	r4, r4
 800569e:	0964      	lsrs	r4, r4, #5
 80056a0:	4622      	mov	r2, r4
 80056a2:	6838      	ldr	r0, [r7, #0]
 80056a4:	eba8 0109 	sub.w	r1, r8, r9
 80056a8:	f7ff f873 	bl	8004792 <vQueueWaitForMessageRestricted>
 80056ac:	f7ff fb60 	bl	8004d70 <xTaskResumeAll>
 80056b0:	2800      	cmp	r0, #0
 80056b2:	d1c1      	bne.n	8005638 <prvTimerTask+0x84>
 80056b4:	f04f 23e0 	mov.w	r3, #3758153728	; 0xe000e000
 80056b8:	f04f 5280 	mov.w	r2, #268435456	; 0x10000000
 80056bc:	f8c3 2d04 	str.w	r2, [r3, #3332]	; 0xd04
 80056c0:	f3bf 8f4f 	dsb	sy
 80056c4:	f3bf 8f6f 	isb	sy
 80056c8:	e7b6      	b.n	8005638 <prvTimerTask+0x84>
 80056ca:	f7ff fb51 	bl	8004d70 <xTaskResumeAll>
 80056ce:	e7b3      	b.n	8005638 <prvTimerTask+0x84>
 80056d0:	9b05      	ldr	r3, [sp, #20]
 80056d2:	9907      	ldr	r1, [sp, #28]
 80056d4:	4798      	blx	r3
 80056d6:	9b04      	ldr	r3, [sp, #16]
 80056d8:	2b00      	cmp	r3, #0
 80056da:	dbae      	blt.n	800563a <prvTimerTask+0x86>
 80056dc:	e7b8      	b.n	8005650 <prvTimerTask+0x9c>
 80056de:	1d20      	adds	r0, r4, #4
 80056e0:	f7fe fb01 	bl	8003ce6 <uxListRemove>
 80056e4:	e7b8      	b.n	8005658 <prvTimerTask+0xa4>
 80056e6:	69a1      	ldr	r1, [r4, #24]
 80056e8:	9b05      	ldr	r3, [sp, #20]
 80056ea:	4620      	mov	r0, r4
 80056ec:	4419      	add	r1, r3
 80056ee:	f7ff fe91 	bl	8005414 <prvInsertTimerInActiveList>
 80056f2:	2800      	cmp	r0, #0
 80056f4:	d0a1      	beq.n	800563a <prvTimerTask+0x86>
 80056f6:	6a63      	ldr	r3, [r4, #36]	; 0x24
 80056f8:	4620      	mov	r0, r4
 80056fa:	4798      	blx	r3
 80056fc:	69e3      	ldr	r3, [r4, #28]
 80056fe:	2b01      	cmp	r3, #1
 8005700:	d19b      	bne.n	800563a <prvTimerTask+0x86>
 8005702:	2300      	movs	r3, #0
 8005704:	69a2      	ldr	r2, [r4, #24]
 8005706:	9905      	ldr	r1, [sp, #20]
 8005708:	4620      	mov	r0, r4
 800570a:	440a      	add	r2, r1
 800570c:	9500      	str	r5, [sp, #0]
 800570e:	4619      	mov	r1, r3
 8005710:	f7ff fed0 	bl	80054b4 <xTimerGenericCommand>
 8005714:	2800      	cmp	r0, #0
 8005716:	d190      	bne.n	800563a <prvTimerTask+0x86>
 8005718:	f04f 0350 	mov.w	r3, #80	; 0x50
 800571c:	f383 8811 	msr	BASEPRI, r3
 8005720:	f3bf 8f6f 	isb	sy
 8005724:	f3bf 8f4f 	dsb	sy
 8005728:	e7fe      	b.n	8005728 <prvTimerTask+0x174>
 800572a:	9905      	ldr	r1, [sp, #20]
 800572c:	61a1      	str	r1, [r4, #24]
 800572e:	b941      	cbnz	r1, 8005742 <prvTimerTask+0x18e>
 8005730:	f04f 0350 	mov.w	r3, #80	; 0x50
 8005734:	f383 8811 	msr	BASEPRI, r3
 8005738:	f3bf 8f6f 	isb	sy
 800573c:	f3bf 8f4f 	dsb	sy
 8005740:	e7fe      	b.n	8005740 <prvTimerTask+0x18c>
 8005742:	4603      	mov	r3, r0
 8005744:	4401      	add	r1, r0
 8005746:	4620      	mov	r0, r4
 8005748:	f7ff fe64 	bl	8005414 <prvInsertTimerInActiveList>
 800574c:	e775      	b.n	800563a <prvTimerTask+0x86>
 800574e:	f894 302c 	ldrb.w	r3, [r4, #44]	; 0x2c
 8005752:	2b00      	cmp	r3, #0
 8005754:	f47f af71 	bne.w	800563a <prvTimerTask+0x86>
 8005758:	4620      	mov	r0, r4
 800575a:	f000 fa31 	bl	8005bc0 <vPortFree>
 800575e:	e76c      	b.n	800563a <prvTimerTask+0x86>
 8005760:	20001c08 	.word	0x20001c08
 8005764:	20001d2c 	.word	0x20001d2c
 8005768:	20001c0c 	.word	0x20001c0c

0800576c <xTimerPendFunctionCallFromISR>:
 800576c:	b51f      	push	{r0, r1, r2, r3, r4, lr}
 800576e:	4614      	mov	r4, r2
 8005770:	461a      	mov	r2, r3
 8005772:	f06f 0301 	mvn.w	r3, #1
 8005776:	e9cd 3000 	strd	r3, r0, [sp]
 800577a:	4805      	ldr	r0, [pc, #20]	; (8005790 <xTimerPendFunctionCallFromISR+0x24>)
 800577c:	e9cd 1402 	strd	r1, r4, [sp, #8]
 8005780:	2300      	movs	r3, #0
 8005782:	4669      	mov	r1, sp
 8005784:	6800      	ldr	r0, [r0, #0]
 8005786:	f7fe fd40 	bl	800420a <xQueueGenericSendFromISR>
 800578a:	b004      	add	sp, #16
 800578c:	bd10      	pop	{r4, pc}
 800578e:	bf00      	nop
 8005790:	20001d2c 	.word	0x20001d2c

08005794 <prvPortStartFirstTask>:
 8005794:	4806      	ldr	r0, [pc, #24]	; (80057b0 <prvPortStartFirstTask+0x1c>)
 8005796:	6800      	ldr	r0, [r0, #0]
 8005798:	6800      	ldr	r0, [r0, #0]
 800579a:	f380 8808 	msr	MSP, r0
 800579e:	b662      	cpsie	i
 80057a0:	b661      	cpsie	f
 80057a2:	f3bf 8f4f 	dsb	sy
 80057a6:	f3bf 8f6f 	isb	sy
 80057aa:	df00      	svc	0
 80057ac:	bf00      	nop
 80057ae:	0000      	.short	0x0000
 80057b0:	e000ed08 	.word	0xe000ed08

080057b4 <prvTaskExitError>:
 80057b4:	2300      	movs	r3, #0
 80057b6:	b082      	sub	sp, #8
 80057b8:	9301      	str	r3, [sp, #4]
 80057ba:	4b0d      	ldr	r3, [pc, #52]	; (80057f0 <prvTaskExitError+0x3c>)
 80057bc:	681b      	ldr	r3, [r3, #0]
 80057be:	3301      	adds	r3, #1
 80057c0:	d008      	beq.n	80057d4 <prvTaskExitError+0x20>
 80057c2:	f04f 0350 	mov.w	r3, #80	; 0x50
 80057c6:	f383 8811 	msr	BASEPRI, r3
 80057ca:	f3bf 8f6f 	isb	sy
 80057ce:	f3bf 8f4f 	dsb	sy
 80057d2:	e7fe      	b.n	80057d2 <prvTaskExitError+0x1e>
 80057d4:	f04f 0350 	mov.w	r3, #80	; 0x50
 80057d8:	f383 8811 	msr	BASEPRI, r3
 80057dc:	f3bf 8f6f 	isb	sy
 80057e0:	f3bf 8f4f 	dsb	sy
 80057e4:	9b01      	ldr	r3, [sp, #4]
 80057e6:	2b00      	cmp	r3, #0
 80057e8:	d0fc      	beq.n	80057e4 <prvTaskExitError+0x30>
 80057ea:	b002      	add	sp, #8
 80057ec:	4770      	bx	lr
 80057ee:	bf00      	nop
 80057f0:	2000000c 	.word	0x2000000c

080057f4 <pxPortInitialiseStack>:
 80057f4:	f04f 7380 	mov.w	r3, #16777216	; 0x1000000
 80057f8:	f840 3c04 	str.w	r3, [r0, #-4]
 80057fc:	4b05      	ldr	r3, [pc, #20]	; (8005814 <pxPortInitialiseStack+0x20>)
 80057fe:	f021 0101 	bic.w	r1, r1, #1
 8005802:	f840 1c08 	str.w	r1, [r0, #-8]
 8005806:	f840 3c0c 	str.w	r3, [r0, #-12]
 800580a:	f840 2c20 	str.w	r2, [r0, #-32]
 800580e:	3840      	subs	r0, #64	; 0x40
 8005810:	4770      	bx	lr
 8005812:	bf00      	nop
 8005814:	080057b5 	.word	0x080057b5
	...

08005820 <SVC_Handler>:
 8005820:	4b07      	ldr	r3, [pc, #28]	; (8005840 <pxCurrentTCBConst2>)
 8005822:	6819      	ldr	r1, [r3, #0]
 8005824:	6808      	ldr	r0, [r1, #0]
 8005826:	e8b0 0ff0 	ldmia.w	r0!, {r4, r5, r6, r7, r8, r9, sl, fp}
 800582a:	f380 8809 	msr	PSP, r0
 800582e:	f3bf 8f6f 	isb	sy
 8005832:	f04f 0000 	mov.w	r0, #0
 8005836:	f380 8811 	msr	BASEPRI, r0
 800583a:	f04e 0e0d 	orr.w	lr, lr, #13
 800583e:	4770      	bx	lr

08005840 <pxCurrentTCBConst2>:
 8005840:	2000170c 	.word	0x2000170c

08005844 <vPortEnterCritical>:
 8005844:	f04f 0350 	mov.w	r3, #80	; 0x50
 8005848:	f383 8811 	msr	BASEPRI, r3
 800584c:	f3bf 8f6f 	isb	sy
 8005850:	f3bf 8f4f 	dsb	sy
 8005854:	4a0a      	ldr	r2, [pc, #40]	; (8005880 <vPortEnterCritical+0x3c>)
 8005856:	6813      	ldr	r3, [r2, #0]
 8005858:	3301      	adds	r3, #1
 800585a:	2b01      	cmp	r3, #1
 800585c:	6013      	str	r3, [r2, #0]
 800585e:	d10e      	bne.n	800587e <vPortEnterCritical+0x3a>
 8005860:	f04f 23e0 	mov.w	r3, #3758153728	; 0xe000e000
 8005864:	f8d3 3d04 	ldr.w	r3, [r3, #3332]	; 0xd04
 8005868:	b2db      	uxtb	r3, r3
 800586a:	b143      	cbz	r3, 800587e <vPortEnterCritical+0x3a>
 800586c:	f04f 0350 	mov.w	r3, #80	; 0x50
 8005870:	f383 8811 	msr	BASEPRI, r3
 8005874:	f3bf 8f6f 	isb	sy
 8005878:	f3bf 8f4f 	dsb	sy
 800587c:	e7fe      	b.n	800587c <vPortEnterCritical+0x38>
 800587e:	4770      	bx	lr
 8005880:	2000000c 	.word	0x2000000c

08005884 <vPortExitCritical>:
 8005884:	4a08      	ldr	r2, [pc, #32]	; (80058a8 <vPortExitCritical+0x24>)
 8005886:	6813      	ldr	r3, [r2, #0]
 8005888:	b943      	cbnz	r3, 800589c <vPortExitCritical+0x18>
 800588a:	f04f 0350 	mov.w	r3, #80	; 0x50
 800588e:	f383 8811 	msr	BASEPRI, r3
 8005892:	f3bf 8f6f 	isb	sy
 8005896:	f3bf 8f4f 	dsb	sy
 800589a:	e7fe      	b.n	800589a <vPortExitCritical+0x16>
 800589c:	3b01      	subs	r3, #1
 800589e:	6013      	str	r3, [r2, #0]
 80058a0:	b90b      	cbnz	r3, 80058a6 <vPortExitCritical+0x22>
 80058a2:	f383 8811 	msr	BASEPRI, r3
 80058a6:	4770      	bx	lr
 80058a8:	2000000c 	.word	0x2000000c
 80058ac:	00000000 	.word	0x00000000

080058b0 <PendSV_Handler>:
 80058b0:	f3ef 8009 	mrs	r0, PSP
 80058b4:	f3bf 8f6f 	isb	sy
 80058b8:	4b0d      	ldr	r3, [pc, #52]	; (80058f0 <pxCurrentTCBConst>)
 80058ba:	681a      	ldr	r2, [r3, #0]
 80058bc:	e920 0ff0 	stmdb	r0!, {r4, r5, r6, r7, r8, r9, sl, fp}
 80058c0:	6010      	str	r0, [r2, #0]
 80058c2:	e92d 4008 	stmdb	sp!, {r3, lr}
 80058c6:	f04f 0050 	mov.w	r0, #80	; 0x50
 80058ca:	f380 8811 	msr	BASEPRI, r0
 80058ce:	f7ff fb2f 	bl	8004f30 <vTaskSwitchContext>
 80058d2:	f04f 0000 	mov.w	r0, #0
 80058d6:	f380 8811 	msr	BASEPRI, r0
 80058da:	e8bd 4008 	ldmia.w	sp!, {r3, lr}
 80058de:	6819      	ldr	r1, [r3, #0]
 80058e0:	6808      	ldr	r0, [r1, #0]
 80058e2:	e8b0 0ff0 	ldmia.w	r0!, {r4, r5, r6, r7, r8, r9, sl, fp}
 80058e6:	f380 8809 	msr	PSP, r0
 80058ea:	f3bf 8f6f 	isb	sy
 80058ee:	4770      	bx	lr

080058f0 <pxCurrentTCBConst>:
 80058f0:	2000170c 	.word	0x2000170c

080058f4 <SysTick_Handler>:
 80058f4:	b508      	push	{r3, lr}
 80058f6:	f04f 0350 	mov.w	r3, #80	; 0x50
 80058fa:	f383 8811 	msr	BASEPRI, r3
 80058fe:	f3bf 8f6f 	isb	sy
 8005902:	f3bf 8f4f 	dsb	sy
 8005906:	f7ff f9a3 	bl	8004c50 <xTaskIncrementTick>
 800590a:	b128      	cbz	r0, 8005918 <SysTick_Handler+0x24>
 800590c:	f04f 23e0 	mov.w	r3, #3758153728	; 0xe000e000
 8005910:	f04f 5280 	mov.w	r2, #268435456	; 0x10000000
 8005914:	f8c3 2d04 	str.w	r2, [r3, #3332]	; 0xd04
 8005918:	2300      	movs	r3, #0
 800591a:	f383 8811 	msr	BASEPRI, r3
 800591e:	bd08      	pop	{r3, pc}

08005920 <vPortSetupTimerInterrupt>:
 8005920:	f04f 22e0 	mov.w	r2, #3758153728	; 0xe000e000
 8005924:	2300      	movs	r3, #0
 8005926:	f44f 717a 	mov.w	r1, #1000	; 0x3e8
 800592a:	6113      	str	r3, [r2, #16]
 800592c:	6193      	str	r3, [r2, #24]
 800592e:	4b04      	ldr	r3, [pc, #16]	; (8005940 <vPortSetupTimerInterrupt+0x20>)
 8005930:	681b      	ldr	r3, [r3, #0]
 8005932:	fbb3 f3f1 	udiv	r3, r3, r1
 8005936:	3b01      	subs	r3, #1
 8005938:	6153      	str	r3, [r2, #20]
 800593a:	2307      	movs	r3, #7
 800593c:	6113      	str	r3, [r2, #16]
 800593e:	4770      	bx	lr
 8005940:	20000000 	.word	0x20000000

08005944 <xPortStartScheduler>:
 8005944:	b513      	push	{r0, r1, r4, lr}
 8005946:	4b29      	ldr	r3, [pc, #164]	; (80059ec <xPortStartScheduler+0xa8>)
 8005948:	2100      	movs	r1, #0
 800594a:	781a      	ldrb	r2, [r3, #0]
 800594c:	b2d2      	uxtb	r2, r2
 800594e:	9201      	str	r2, [sp, #4]
 8005950:	22ff      	movs	r2, #255	; 0xff
 8005952:	701a      	strb	r2, [r3, #0]
 8005954:	781b      	ldrb	r3, [r3, #0]
 8005956:	4a26      	ldr	r2, [pc, #152]	; (80059f0 <xPortStartScheduler+0xac>)
 8005958:	b2db      	uxtb	r3, r3
 800595a:	f88d 3003 	strb.w	r3, [sp, #3]
 800595e:	f89d 3003 	ldrb.w	r3, [sp, #3]
 8005962:	f003 0350 	and.w	r3, r3, #80	; 0x50
 8005966:	7013      	strb	r3, [r2, #0]
 8005968:	2307      	movs	r3, #7
 800596a:	4a22      	ldr	r2, [pc, #136]	; (80059f4 <xPortStartScheduler+0xb0>)
 800596c:	6013      	str	r3, [r2, #0]
 800596e:	f89d 0003 	ldrb.w	r0, [sp, #3]
 8005972:	1e5c      	subs	r4, r3, #1
 8005974:	0600      	lsls	r0, r0, #24
 8005976:	d40c      	bmi.n	8005992 <xPortStartScheduler+0x4e>
 8005978:	b111      	cbz	r1, 8005980 <xPortStartScheduler+0x3c>
 800597a:	2b03      	cmp	r3, #3
 800597c:	6013      	str	r3, [r2, #0]
 800597e:	d011      	beq.n	80059a4 <xPortStartScheduler+0x60>
 8005980:	f04f 0350 	mov.w	r3, #80	; 0x50
 8005984:	f383 8811 	msr	BASEPRI, r3
 8005988:	f3bf 8f6f 	isb	sy
 800598c:	f3bf 8f4f 	dsb	sy
 8005990:	e7fe      	b.n	8005990 <xPortStartScheduler+0x4c>
 8005992:	f89d 3003 	ldrb.w	r3, [sp, #3]
 8005996:	2101      	movs	r1, #1
 8005998:	005b      	lsls	r3, r3, #1
 800599a:	b2db      	uxtb	r3, r3
 800599c:	f88d 3003 	strb.w	r3, [sp, #3]
 80059a0:	4623      	mov	r3, r4
 80059a2:	e7e4      	b.n	800596e <xPortStartScheduler+0x2a>
 80059a4:	f44f 7340 	mov.w	r3, #768	; 0x300
 80059a8:	6013      	str	r3, [r2, #0]
 80059aa:	9b01      	ldr	r3, [sp, #4]
 80059ac:	4a0f      	ldr	r2, [pc, #60]	; (80059ec <xPortStartScheduler+0xa8>)
 80059ae:	b2db      	uxtb	r3, r3
 80059b0:	7013      	strb	r3, [r2, #0]
 80059b2:	f04f 23e0 	mov.w	r3, #3758153728	; 0xe000e000
 80059b6:	2400      	movs	r4, #0
 80059b8:	f8d3 2d20 	ldr.w	r2, [r3, #3360]	; 0xd20
 80059bc:	f442 0270 	orr.w	r2, r2, #15728640	; 0xf00000
 80059c0:	f8c3 2d20 	str.w	r2, [r3, #3360]	; 0xd20
 80059c4:	f8d3 2d20 	ldr.w	r2, [r3, #3360]	; 0xd20
 80059c8:	f042 4270 	orr.w	r2, r2, #4026531840	; 0xf0000000
 80059cc:	f8c3 2d20 	str.w	r2, [r3, #3360]	; 0xd20
 80059d0:	f7ff ffa6 	bl	8005920 <vPortSetupTimerInterrupt>
 80059d4:	4b08      	ldr	r3, [pc, #32]	; (80059f8 <xPortStartScheduler+0xb4>)
 80059d6:	601c      	str	r4, [r3, #0]
 80059d8:	f7ff fedc 	bl	8005794 <prvPortStartFirstTask>
 80059dc:	f7ff faa8 	bl	8004f30 <vTaskSwitchContext>
 80059e0:	4620      	mov	r0, r4
 80059e2:	f7ff fee7 	bl	80057b4 <prvTaskExitError>
 80059e6:	b002      	add	sp, #8
 80059e8:	bd10      	pop	{r4, pc}
 80059ea:	bf00      	nop
 80059ec:	e000e400 	.word	0xe000e400
 80059f0:	20001d34 	.word	0x20001d34
 80059f4:	20001d38 	.word	0x20001d38
 80059f8:	2000000c 	.word	0x2000000c

080059fc <vPortValidateInterruptPriority>:
 80059fc:	f3ef 8305 	mrs	r3, IPSR
 8005a00:	2b0f      	cmp	r3, #15
 8005a02:	d90e      	bls.n	8005a22 <vPortValidateInterruptPriority+0x26>
 8005a04:	4a11      	ldr	r2, [pc, #68]	; (8005a4c <vPortValidateInterruptPriority+0x50>)
 8005a06:	5c9b      	ldrb	r3, [r3, r2]
 8005a08:	4a11      	ldr	r2, [pc, #68]	; (8005a50 <vPortValidateInterruptPriority+0x54>)
 8005a0a:	7812      	ldrb	r2, [r2, #0]
 8005a0c:	429a      	cmp	r2, r3
 8005a0e:	d908      	bls.n	8005a22 <vPortValidateInterruptPriority+0x26>
 8005a10:	f04f 0350 	mov.w	r3, #80	; 0x50
 8005a14:	f383 8811 	msr	BASEPRI, r3
 8005a18:	f3bf 8f6f 	isb	sy
 8005a1c:	f3bf 8f4f 	dsb	sy
 8005a20:	e7fe      	b.n	8005a20 <vPortValidateInterruptPriority+0x24>
 8005a22:	f04f 23e0 	mov.w	r3, #3758153728	; 0xe000e000
 8005a26:	4a0b      	ldr	r2, [pc, #44]	; (8005a54 <vPortValidateInterruptPriority+0x58>)
 8005a28:	f8d3 3d0c 	ldr.w	r3, [r3, #3340]	; 0xd0c
 8005a2c:	6812      	ldr	r2, [r2, #0]
 8005a2e:	f403 63e0 	and.w	r3, r3, #1792	; 0x700
 8005a32:	4293      	cmp	r3, r2
 8005a34:	d908      	bls.n	8005a48 <vPortValidateInterruptPriority+0x4c>
 8005a36:	f04f 0350 	mov.w	r3, #80	; 0x50
 8005a3a:	f383 8811 	msr	BASEPRI, r3
 8005a3e:	f3bf 8f6f 	isb	sy
 8005a42:	f3bf 8f4f 	dsb	sy
 8005a46:	e7fe      	b.n	8005a46 <vPortValidateInterruptPriority+0x4a>
 8005a48:	4770      	bx	lr
 8005a4a:	bf00      	nop
 8005a4c:	e000e3f0 	.word	0xe000e3f0
 8005a50:	20001d34 	.word	0x20001d34
 8005a54:	20001d38 	.word	0x20001d38

08005a58 <prvInsertBlockIntoFreeList>:
 8005a58:	b510      	push	{r4, lr}
 8005a5a:	4b0f      	ldr	r3, [pc, #60]	; (8005a98 <prvInsertBlockIntoFreeList+0x40>)
 8005a5c:	461a      	mov	r2, r3
 8005a5e:	681b      	ldr	r3, [r3, #0]
 8005a60:	4283      	cmp	r3, r0
 8005a62:	d3fb      	bcc.n	8005a5c <prvInsertBlockIntoFreeList+0x4>
 8005a64:	6854      	ldr	r4, [r2, #4]
 8005a66:	1911      	adds	r1, r2, r4
 8005a68:	4288      	cmp	r0, r1
 8005a6a:	bf01      	itttt	eq
 8005a6c:	6841      	ldreq	r1, [r0, #4]
 8005a6e:	4610      	moveq	r0, r2
 8005a70:	1909      	addeq	r1, r1, r4
 8005a72:	6051      	streq	r1, [r2, #4]
 8005a74:	6844      	ldr	r4, [r0, #4]
 8005a76:	1901      	adds	r1, r0, r4
 8005a78:	428b      	cmp	r3, r1
 8005a7a:	d107      	bne.n	8005a8c <prvInsertBlockIntoFreeList+0x34>
 8005a7c:	4907      	ldr	r1, [pc, #28]	; (8005a9c <prvInsertBlockIntoFreeList+0x44>)
 8005a7e:	6809      	ldr	r1, [r1, #0]
 8005a80:	428b      	cmp	r3, r1
 8005a82:	bf1f      	itttt	ne
 8005a84:	6859      	ldrne	r1, [r3, #4]
 8005a86:	681b      	ldrne	r3, [r3, #0]
 8005a88:	1909      	addne	r1, r1, r4
 8005a8a:	6041      	strne	r1, [r0, #4]
 8005a8c:	4290      	cmp	r0, r2
 8005a8e:	6003      	str	r3, [r0, #0]
 8005a90:	bf18      	it	ne
 8005a92:	6010      	strne	r0, [r2, #0]
 8005a94:	bd10      	pop	{r4, pc}
 8005a96:	bf00      	nop
 8005a98:	200030d4 	.word	0x200030d4
 8005a9c:	20001d3c 	.word	0x20001d3c

08005aa0 <pvPortMalloc>:
 8005aa0:	e92d 41f0 	stmdb	sp!, {r4, r5, r6, r7, r8, lr}
 8005aa4:	4f3f      	ldr	r7, [pc, #252]	; (8005ba4 <pvPortMalloc+0x104>)
 8005aa6:	4604      	mov	r4, r0
 8005aa8:	f7ff f8bc 	bl	8004c24 <vTaskSuspendAll>
 8005aac:	683b      	ldr	r3, [r7, #0]
 8005aae:	483e      	ldr	r0, [pc, #248]	; (8005ba8 <pvPortMalloc+0x108>)
 8005ab0:	b9fb      	cbnz	r3, 8005af2 <pvPortMalloc+0x52>
 8005ab2:	493e      	ldr	r1, [pc, #248]	; (8005bac <pvPortMalloc+0x10c>)
 8005ab4:	2300      	movs	r3, #0
 8005ab6:	074d      	lsls	r5, r1, #29
 8005ab8:	bf0f      	iteee	eq
 8005aba:	f241 3288 	movweq	r2, #5000	; 0x1388
 8005abe:	3107      	addne	r1, #7
 8005ac0:	4a3b      	ldrne	r2, [pc, #236]	; (8005bb0 <pvPortMalloc+0x110>)
 8005ac2:	f021 0107 	bicne.w	r1, r1, #7
 8005ac6:	bf18      	it	ne
 8005ac8:	1a52      	subne	r2, r2, r1
 8005aca:	440a      	add	r2, r1
 8005acc:	4d39      	ldr	r5, [pc, #228]	; (8005bb4 <pvPortMalloc+0x114>)
 8005ace:	3a08      	subs	r2, #8
 8005ad0:	f022 0207 	bic.w	r2, r2, #7
 8005ad4:	606b      	str	r3, [r5, #4]
 8005ad6:	6029      	str	r1, [r5, #0]
 8005ad8:	e9c2 3300 	strd	r3, r3, [r2]
 8005adc:	1a53      	subs	r3, r2, r1
 8005ade:	e9c1 2300 	strd	r2, r3, [r1]
 8005ae2:	603a      	str	r2, [r7, #0]
 8005ae4:	4a34      	ldr	r2, [pc, #208]	; (8005bb8 <pvPortMalloc+0x118>)
 8005ae6:	6013      	str	r3, [r2, #0]
 8005ae8:	4a34      	ldr	r2, [pc, #208]	; (8005bbc <pvPortMalloc+0x11c>)
 8005aea:	6013      	str	r3, [r2, #0]
 8005aec:	f04f 4300 	mov.w	r3, #2147483648	; 0x80000000
 8005af0:	6003      	str	r3, [r0, #0]
 8005af2:	f8d0 8000 	ldr.w	r8, [r0]
 8005af6:	ea18 0f04 	tst.w	r8, r4
 8005afa:	d14d      	bne.n	8005b98 <pvPortMalloc+0xf8>
 8005afc:	2c00      	cmp	r4, #0
 8005afe:	d03e      	beq.n	8005b7e <pvPortMalloc+0xde>
 8005b00:	f104 0308 	add.w	r3, r4, #8
 8005b04:	0761      	lsls	r1, r4, #29
 8005b06:	bf1c      	itt	ne
 8005b08:	f023 0307 	bicne.w	r3, r3, #7
 8005b0c:	3308      	addne	r3, #8
 8005b0e:	2b00      	cmp	r3, #0
 8005b10:	d042      	beq.n	8005b98 <pvPortMalloc+0xf8>
 8005b12:	4c2a      	ldr	r4, [pc, #168]	; (8005bbc <pvPortMalloc+0x11c>)
 8005b14:	6826      	ldr	r6, [r4, #0]
 8005b16:	429e      	cmp	r6, r3
 8005b18:	d33e      	bcc.n	8005b98 <pvPortMalloc+0xf8>
 8005b1a:	4a26      	ldr	r2, [pc, #152]	; (8005bb4 <pvPortMalloc+0x114>)
 8005b1c:	6815      	ldr	r5, [r2, #0]
 8005b1e:	6869      	ldr	r1, [r5, #4]
 8005b20:	4299      	cmp	r1, r3
 8005b22:	d201      	bcs.n	8005b28 <pvPortMalloc+0x88>
 8005b24:	6828      	ldr	r0, [r5, #0]
 8005b26:	b9a0      	cbnz	r0, 8005b52 <pvPortMalloc+0xb2>
 8005b28:	6838      	ldr	r0, [r7, #0]
 8005b2a:	42a8      	cmp	r0, r5
 8005b2c:	d034      	beq.n	8005b98 <pvPortMalloc+0xf8>
 8005b2e:	6828      	ldr	r0, [r5, #0]
 8005b30:	1ac9      	subs	r1, r1, r3
 8005b32:	2910      	cmp	r1, #16
 8005b34:	6817      	ldr	r7, [r2, #0]
 8005b36:	6010      	str	r0, [r2, #0]
 8005b38:	d912      	bls.n	8005b60 <pvPortMalloc+0xc0>
 8005b3a:	18e8      	adds	r0, r5, r3
 8005b3c:	0742      	lsls	r2, r0, #29
 8005b3e:	d00b      	beq.n	8005b58 <pvPortMalloc+0xb8>
 8005b40:	f04f 0350 	mov.w	r3, #80	; 0x50
 8005b44:	f383 8811 	msr	BASEPRI, r3
 8005b48:	f3bf 8f6f 	isb	sy
 8005b4c:	f3bf 8f4f 	dsb	sy
 8005b50:	e7fe      	b.n	8005b50 <pvPortMalloc+0xb0>
 8005b52:	462a      	mov	r2, r5
 8005b54:	4605      	mov	r5, r0
 8005b56:	e7e2      	b.n	8005b1e <pvPortMalloc+0x7e>
 8005b58:	6041      	str	r1, [r0, #4]
 8005b5a:	606b      	str	r3, [r5, #4]
 8005b5c:	f7ff ff7c 	bl	8005a58 <prvInsertBlockIntoFreeList>
 8005b60:	686b      	ldr	r3, [r5, #4]
 8005b62:	4915      	ldr	r1, [pc, #84]	; (8005bb8 <pvPortMalloc+0x118>)
 8005b64:	1af6      	subs	r6, r6, r3
 8005b66:	ea48 0303 	orr.w	r3, r8, r3
 8005b6a:	606b      	str	r3, [r5, #4]
 8005b6c:	2300      	movs	r3, #0
 8005b6e:	6808      	ldr	r0, [r1, #0]
 8005b70:	6026      	str	r6, [r4, #0]
 8005b72:	4286      	cmp	r6, r0
 8005b74:	bf38      	it	cc
 8005b76:	600e      	strcc	r6, [r1, #0]
 8005b78:	f107 0408 	add.w	r4, r7, #8
 8005b7c:	602b      	str	r3, [r5, #0]
 8005b7e:	f7ff f8f7 	bl	8004d70 <xTaskResumeAll>
 8005b82:	0763      	lsls	r3, r4, #29
 8005b84:	d00a      	beq.n	8005b9c <pvPortMalloc+0xfc>
 8005b86:	f04f 0350 	mov.w	r3, #80	; 0x50
 8005b8a:	f383 8811 	msr	BASEPRI, r3
 8005b8e:	f3bf 8f6f 	isb	sy
 8005b92:	f3bf 8f4f 	dsb	sy
 8005b96:	e7fe      	b.n	8005b96 <pvPortMalloc+0xf6>
 8005b98:	2400      	movs	r4, #0
 8005b9a:	e7f0      	b.n	8005b7e <pvPortMalloc+0xde>
 8005b9c:	4620      	mov	r0, r4
 8005b9e:	e8bd 81f0 	ldmia.w	sp!, {r4, r5, r6, r7, r8, pc}
 8005ba2:	bf00      	nop
 8005ba4:	20001d3c 	.word	0x20001d3c
 8005ba8:	200030c8 	.word	0x200030c8
 8005bac:	20001d40 	.word	0x20001d40
 8005bb0:	200030c8 	.word	0x200030c8
 8005bb4:	200030d4 	.word	0x200030d4
 8005bb8:	200030d0 	.word	0x200030d0
 8005bbc:	200030cc 	.word	0x200030cc

08005bc0 <vPortFree>:
 8005bc0:	b510      	push	{r4, lr}
 8005bc2:	4604      	mov	r4, r0
 8005bc4:	b370      	cbz	r0, 8005c24 <vPortFree+0x64>
 8005bc6:	4a18      	ldr	r2, [pc, #96]	; (8005c28 <vPortFree+0x68>)
 8005bc8:	f850 3c04 	ldr.w	r3, [r0, #-4]
 8005bcc:	6812      	ldr	r2, [r2, #0]
 8005bce:	4213      	tst	r3, r2
 8005bd0:	d108      	bne.n	8005be4 <vPortFree+0x24>
 8005bd2:	f04f 0350 	mov.w	r3, #80	; 0x50
 8005bd6:	f383 8811 	msr	BASEPRI, r3
 8005bda:	f3bf 8f6f 	isb	sy
 8005bde:	f3bf 8f4f 	dsb	sy
 8005be2:	e7fe      	b.n	8005be2 <vPortFree+0x22>
 8005be4:	f850 1c08 	ldr.w	r1, [r0, #-8]
 8005be8:	b141      	cbz	r1, 8005bfc <vPortFree+0x3c>
 8005bea:	f04f 0350 	mov.w	r3, #80	; 0x50
 8005bee:	f383 8811 	msr	BASEPRI, r3
 8005bf2:	f3bf 8f6f 	isb	sy
 8005bf6:	f3bf 8f4f 	dsb	sy
 8005bfa:	e7fe      	b.n	8005bfa <vPortFree+0x3a>
 8005bfc:	ea23 0302 	bic.w	r3, r3, r2
 8005c00:	f840 3c04 	str.w	r3, [r0, #-4]
 8005c04:	f7ff f80e 	bl	8004c24 <vTaskSuspendAll>
 8005c08:	4a08      	ldr	r2, [pc, #32]	; (8005c2c <vPortFree+0x6c>)
 8005c0a:	f854 3c04 	ldr.w	r3, [r4, #-4]
 8005c0e:	6811      	ldr	r1, [r2, #0]
 8005c10:	f1a4 0008 	sub.w	r0, r4, #8
 8005c14:	440b      	add	r3, r1
 8005c16:	6013      	str	r3, [r2, #0]
 8005c18:	f7ff ff1e 	bl	8005a58 <prvInsertBlockIntoFreeList>
 8005c1c:	e8bd 4010 	ldmia.w	sp!, {r4, lr}
 8005c20:	f7ff b8a6 	b.w	8004d70 <xTaskResumeAll>
 8005c24:	bd10      	pop	{r4, pc}
 8005c26:	bf00      	nop
 8005c28:	200030c8 	.word	0x200030c8
 8005c2c:	200030cc 	.word	0x200030cc

08005c30 <__libc_init_array>:
 8005c30:	b570      	push	{r4, r5, r6, lr}
 8005c32:	2600      	movs	r6, #0
 8005c34:	4d0c      	ldr	r5, [pc, #48]	; (8005c68 <__libc_init_array+0x38>)
 8005c36:	4c0d      	ldr	r4, [pc, #52]	; (8005c6c <__libc_init_array+0x3c>)
 8005c38:	1b64      	subs	r4, r4, r5
 8005c3a:	10a4      	asrs	r4, r4, #2
 8005c3c:	42a6      	cmp	r6, r4
 8005c3e:	d109      	bne.n	8005c54 <__libc_init_array+0x24>
 8005c40:	f000 f8f0 	bl	8005e24 <_init>
 8005c44:	2600      	movs	r6, #0
 8005c46:	4d0a      	ldr	r5, [pc, #40]	; (8005c70 <__libc_init_array+0x40>)
 8005c48:	4c0a      	ldr	r4, [pc, #40]	; (8005c74 <__libc_init_array+0x44>)
 8005c4a:	1b64      	subs	r4, r4, r5
 8005c4c:	10a4      	asrs	r4, r4, #2
 8005c4e:	42a6      	cmp	r6, r4
 8005c50:	d105      	bne.n	8005c5e <__libc_init_array+0x2e>
 8005c52:	bd70      	pop	{r4, r5, r6, pc}
 8005c54:	f855 3b04 	ldr.w	r3, [r5], #4
 8005c58:	4798      	blx	r3
 8005c5a:	3601      	adds	r6, #1
 8005c5c:	e7ee      	b.n	8005c3c <__libc_init_array+0xc>
 8005c5e:	f855 3b04 	ldr.w	r3, [r5], #4
 8005c62:	4798      	blx	r3
 8005c64:	3601      	adds	r6, #1
 8005c66:	e7f2      	b.n	8005c4e <__libc_init_array+0x1e>
 8005c68:	08006048 	.word	0x08006048
 8005c6c:	08006048 	.word	0x08006048
 8005c70:	08006048 	.word	0x08006048
 8005c74:	0800604c 	.word	0x0800604c

08005c78 <__retarget_lock_acquire_recursive>:
 8005c78:	4770      	bx	lr

08005c7a <__retarget_lock_release_recursive>:
 8005c7a:	4770      	bx	lr

08005c7c <memcpy>:
 8005c7c:	440a      	add	r2, r1
 8005c7e:	4291      	cmp	r1, r2
 8005c80:	f100 33ff 	add.w	r3, r0, #4294967295
 8005c84:	d100      	bne.n	8005c88 <memcpy+0xc>
 8005c86:	4770      	bx	lr
 8005c88:	b510      	push	{r4, lr}
 8005c8a:	f811 4b01 	ldrb.w	r4, [r1], #1
 8005c8e:	4291      	cmp	r1, r2
 8005c90:	f803 4f01 	strb.w	r4, [r3, #1]!
 8005c94:	d1f9      	bne.n	8005c8a <memcpy+0xe>
 8005c96:	bd10      	pop	{r4, pc}

08005c98 <memset>:
 8005c98:	4603      	mov	r3, r0
 8005c9a:	4402      	add	r2, r0
 8005c9c:	4293      	cmp	r3, r2
 8005c9e:	d100      	bne.n	8005ca2 <memset+0xa>
 8005ca0:	4770      	bx	lr
 8005ca2:	f803 1b01 	strb.w	r1, [r3], #1
 8005ca6:	e7f9      	b.n	8005c9c <memset+0x4>

08005ca8 <cleanup_glue>:
 8005ca8:	b538      	push	{r3, r4, r5, lr}
 8005caa:	460c      	mov	r4, r1
 8005cac:	6809      	ldr	r1, [r1, #0]
 8005cae:	4605      	mov	r5, r0
 8005cb0:	b109      	cbz	r1, 8005cb6 <cleanup_glue+0xe>
 8005cb2:	f7ff fff9 	bl	8005ca8 <cleanup_glue>
 8005cb6:	4621      	mov	r1, r4
 8005cb8:	4628      	mov	r0, r5
 8005cba:	e8bd 4038 	ldmia.w	sp!, {r3, r4, r5, lr}
 8005cbe:	f000 b869 	b.w	8005d94 <_free_r>
	...

08005cc4 <_reclaim_reent>:
 8005cc4:	4b2c      	ldr	r3, [pc, #176]	; (8005d78 <_reclaim_reent+0xb4>)
 8005cc6:	b570      	push	{r4, r5, r6, lr}
 8005cc8:	681b      	ldr	r3, [r3, #0]
 8005cca:	4604      	mov	r4, r0
 8005ccc:	4283      	cmp	r3, r0
 8005cce:	d051      	beq.n	8005d74 <_reclaim_reent+0xb0>
 8005cd0:	6a43      	ldr	r3, [r0, #36]	; 0x24
 8005cd2:	b143      	cbz	r3, 8005ce6 <_reclaim_reent+0x22>
 8005cd4:	68db      	ldr	r3, [r3, #12]
 8005cd6:	2b00      	cmp	r3, #0
 8005cd8:	d14a      	bne.n	8005d70 <_reclaim_reent+0xac>
 8005cda:	6a63      	ldr	r3, [r4, #36]	; 0x24
 8005cdc:	6819      	ldr	r1, [r3, #0]
 8005cde:	b111      	cbz	r1, 8005ce6 <_reclaim_reent+0x22>
 8005ce0:	4620      	mov	r0, r4
 8005ce2:	f000 f857 	bl	8005d94 <_free_r>
 8005ce6:	6961      	ldr	r1, [r4, #20]
 8005ce8:	b111      	cbz	r1, 8005cf0 <_reclaim_reent+0x2c>
 8005cea:	4620      	mov	r0, r4
 8005cec:	f000 f852 	bl	8005d94 <_free_r>
 8005cf0:	6a61      	ldr	r1, [r4, #36]	; 0x24
 8005cf2:	b111      	cbz	r1, 8005cfa <_reclaim_reent+0x36>
 8005cf4:	4620      	mov	r0, r4
 8005cf6:	f000 f84d 	bl	8005d94 <_free_r>
 8005cfa:	6ba1      	ldr	r1, [r4, #56]	; 0x38
 8005cfc:	b111      	cbz	r1, 8005d04 <_reclaim_reent+0x40>
 8005cfe:	4620      	mov	r0, r4
 8005d00:	f000 f848 	bl	8005d94 <_free_r>
 8005d04:	6be1      	ldr	r1, [r4, #60]	; 0x3c
 8005d06:	b111      	cbz	r1, 8005d0e <_reclaim_reent+0x4a>
 8005d08:	4620      	mov	r0, r4
 8005d0a:	f000 f843 	bl	8005d94 <_free_r>
 8005d0e:	6c21      	ldr	r1, [r4, #64]	; 0x40
 8005d10:	b111      	cbz	r1, 8005d18 <_reclaim_reent+0x54>
 8005d12:	4620      	mov	r0, r4
 8005d14:	f000 f83e 	bl	8005d94 <_free_r>
 8005d18:	6de1      	ldr	r1, [r4, #92]	; 0x5c
 8005d1a:	b111      	cbz	r1, 8005d22 <_reclaim_reent+0x5e>
 8005d1c:	4620      	mov	r0, r4
 8005d1e:	f000 f839 	bl	8005d94 <_free_r>
 8005d22:	6da1      	ldr	r1, [r4, #88]	; 0x58
 8005d24:	b111      	cbz	r1, 8005d2c <_reclaim_reent+0x68>
 8005d26:	4620      	mov	r0, r4
 8005d28:	f000 f834 	bl	8005d94 <_free_r>
 8005d2c:	6b61      	ldr	r1, [r4, #52]	; 0x34
 8005d2e:	b111      	cbz	r1, 8005d36 <_reclaim_reent+0x72>
 8005d30:	4620      	mov	r0, r4
 8005d32:	f000 f82f 	bl	8005d94 <_free_r>
 8005d36:	69a3      	ldr	r3, [r4, #24]
 8005d38:	b1e3      	cbz	r3, 8005d74 <_reclaim_reent+0xb0>
 8005d3a:	4620      	mov	r0, r4
 8005d3c:	6aa3      	ldr	r3, [r4, #40]	; 0x28
 8005d3e:	4798      	blx	r3
 8005d40:	6ca1      	ldr	r1, [r4, #72]	; 0x48
 8005d42:	b1b9      	cbz	r1, 8005d74 <_reclaim_reent+0xb0>
 8005d44:	4620      	mov	r0, r4
 8005d46:	e8bd 4070 	ldmia.w	sp!, {r4, r5, r6, lr}
 8005d4a:	f7ff bfad 	b.w	8005ca8 <cleanup_glue>
 8005d4e:	5949      	ldr	r1, [r1, r5]
 8005d50:	b941      	cbnz	r1, 8005d64 <_reclaim_reent+0xa0>
 8005d52:	3504      	adds	r5, #4
 8005d54:	6a63      	ldr	r3, [r4, #36]	; 0x24
 8005d56:	2d80      	cmp	r5, #128	; 0x80
 8005d58:	68d9      	ldr	r1, [r3, #12]
 8005d5a:	d1f8      	bne.n	8005d4e <_reclaim_reent+0x8a>
 8005d5c:	4620      	mov	r0, r4
 8005d5e:	f000 f819 	bl	8005d94 <_free_r>
 8005d62:	e7ba      	b.n	8005cda <_reclaim_reent+0x16>
 8005d64:	680e      	ldr	r6, [r1, #0]
 8005d66:	4620      	mov	r0, r4
 8005d68:	f000 f814 	bl	8005d94 <_free_r>
 8005d6c:	4631      	mov	r1, r6
 8005d6e:	e7ef      	b.n	8005d50 <_reclaim_reent+0x8c>
 8005d70:	2500      	movs	r5, #0
 8005d72:	e7ef      	b.n	8005d54 <_reclaim_reent+0x90>
 8005d74:	bd70      	pop	{r4, r5, r6, pc}
 8005d76:	bf00      	nop
 8005d78:	20000010 	.word	0x20000010

08005d7c <__malloc_lock>:
 8005d7c:	4801      	ldr	r0, [pc, #4]	; (8005d84 <__malloc_lock+0x8>)
 8005d7e:	f7ff bf7b 	b.w	8005c78 <__retarget_lock_acquire_recursive>
 8005d82:	bf00      	nop
 8005d84:	200030dc 	.word	0x200030dc

08005d88 <__malloc_unlock>:
 8005d88:	4801      	ldr	r0, [pc, #4]	; (8005d90 <__malloc_unlock+0x8>)
 8005d8a:	f7ff bf76 	b.w	8005c7a <__retarget_lock_release_recursive>
 8005d8e:	bf00      	nop
 8005d90:	200030dc 	.word	0x200030dc

08005d94 <_free_r>:
 8005d94:	b538      	push	{r3, r4, r5, lr}
 8005d96:	4605      	mov	r5, r0
 8005d98:	2900      	cmp	r1, #0
 8005d9a:	d040      	beq.n	8005e1e <_free_r+0x8a>
 8005d9c:	f851 3c04 	ldr.w	r3, [r1, #-4]
 8005da0:	1f0c      	subs	r4, r1, #4
 8005da2:	2b00      	cmp	r3, #0
 8005da4:	bfb8      	it	lt
 8005da6:	18e4      	addlt	r4, r4, r3
 8005da8:	f7ff ffe8 	bl	8005d7c <__malloc_lock>
 8005dac:	4a1c      	ldr	r2, [pc, #112]	; (8005e20 <_free_r+0x8c>)
 8005dae:	6813      	ldr	r3, [r2, #0]
 8005db0:	b933      	cbnz	r3, 8005dc0 <_free_r+0x2c>
 8005db2:	6063      	str	r3, [r4, #4]
 8005db4:	6014      	str	r4, [r2, #0]
 8005db6:	4628      	mov	r0, r5
 8005db8:	e8bd 4038 	ldmia.w	sp!, {r3, r4, r5, lr}
 8005dbc:	f7ff bfe4 	b.w	8005d88 <__malloc_unlock>
 8005dc0:	42a3      	cmp	r3, r4
 8005dc2:	d908      	bls.n	8005dd6 <_free_r+0x42>
 8005dc4:	6820      	ldr	r0, [r4, #0]
 8005dc6:	1821      	adds	r1, r4, r0
 8005dc8:	428b      	cmp	r3, r1
 8005dca:	bf01      	itttt	eq
 8005dcc:	6819      	ldreq	r1, [r3, #0]
 8005dce:	685b      	ldreq	r3, [r3, #4]
 8005dd0:	1809      	addeq	r1, r1, r0
 8005dd2:	6021      	streq	r1, [r4, #0]
 8005dd4:	e7ed      	b.n	8005db2 <_free_r+0x1e>
 8005dd6:	461a      	mov	r2, r3
 8005dd8:	685b      	ldr	r3, [r3, #4]
 8005dda:	b10b      	cbz	r3, 8005de0 <_free_r+0x4c>
 8005ddc:	42a3      	cmp	r3, r4
 8005dde:	d9fa      	bls.n	8005dd6 <_free_r+0x42>
 8005de0:	6811      	ldr	r1, [r2, #0]
 8005de2:	1850      	adds	r0, r2, r1
 8005de4:	42a0      	cmp	r0, r4
 8005de6:	d10b      	bne.n	8005e00 <_free_r+0x6c>
 8005de8:	6820      	ldr	r0, [r4, #0]
 8005dea:	4401      	add	r1, r0
 8005dec:	1850      	adds	r0, r2, r1
 8005dee:	4283      	cmp	r3, r0
 8005df0:	6011      	str	r1, [r2, #0]
 8005df2:	d1e0      	bne.n	8005db6 <_free_r+0x22>
 8005df4:	6818      	ldr	r0, [r3, #0]
 8005df6:	685b      	ldr	r3, [r3, #4]
 8005df8:	4401      	add	r1, r0
 8005dfa:	6011      	str	r1, [r2, #0]
 8005dfc:	6053      	str	r3, [r2, #4]
 8005dfe:	e7da      	b.n	8005db6 <_free_r+0x22>
 8005e00:	d902      	bls.n	8005e08 <_free_r+0x74>
 8005e02:	230c      	movs	r3, #12
 8005e04:	602b      	str	r3, [r5, #0]
 8005e06:	e7d6      	b.n	8005db6 <_free_r+0x22>
 8005e08:	6820      	ldr	r0, [r4, #0]
 8005e0a:	1821      	adds	r1, r4, r0
 8005e0c:	428b      	cmp	r3, r1
 8005e0e:	bf01      	itttt	eq
 8005e10:	6819      	ldreq	r1, [r3, #0]
 8005e12:	685b      	ldreq	r3, [r3, #4]
 8005e14:	1809      	addeq	r1, r1, r0
 8005e16:	6021      	streq	r1, [r4, #0]
 8005e18:	6063      	str	r3, [r4, #4]
 8005e1a:	6054      	str	r4, [r2, #4]
 8005e1c:	e7cb      	b.n	8005db6 <_free_r+0x22>
 8005e1e:	bd38      	pop	{r3, r4, r5, pc}
 8005e20:	200030e0 	.word	0x200030e0

08005e24 <_init>:
 8005e24:	b5f8      	push	{r3, r4, r5, r6, r7, lr}
 8005e26:	bf00      	nop
 8005e28:	bcf8      	pop	{r3, r4, r5, r6, r7}
 8005e2a:	bc08      	pop	{r3}
 8005e2c:	469e      	mov	lr, r3
 8005e2e:	4770      	bx	lr

08005e30 <_fini>:
 8005e30:	b5f8      	push	{r3, r4, r5, r6, r7, lr}
 8005e32:	bf00      	nop
 8005e34:	bcf8      	pop	{r3, r4, r5, r6, r7}
 8005e36:	bc08      	pop	{r3}
 8005e38:	469e      	mov	lr, r3
 8005e3a:	4770      	bx	lr
